(dp0
ccopy_reg
_reconstructor
p1
(cRolloutKey
RolloutKey
p2
c__builtin__
object
p3
Ntp4
Rp5
(dp6
S'dealerScore'
p7
S'18'
p8
sS'moveName'
p9
S'Y'
p10
sS'playerScore'
p11
S'5'
p12
sb(I0
I38
I0
tp13
sg1
(g2
g3
Ntp14
Rp15
(dp16
g7
S'3'
p17
sg9
S'S'
p18
sg11
S'14'
p19
sb(I3
I11
I0
tp20
sg1
(g2
g3
Ntp21
Rp22
(dp23
g7
S'10'
p24
sg9
S'D'
p25
sg11
g12
sb(I0
I0
I67
tp26
sg1
(g2
g3
Ntp27
Rp28
(dp29
g7
g17
sg9
S'H'
p30
sg11
S'20'
p31
sb(I0
I0
I387
tp32
sg1
(g2
g3
Ntp33
Rp34
(dp35
g7
S'11'
p36
sg9
g10
sg11
S'7'
p37
sb(I0
I1
I0
tp38
sg1
(g2
g3
Ntp39
Rp40
(dp41
g7
S'25'
p42
sg9
g10
sg11
S'13'
p43
sb(I136
I0
I0
tp44
sg1
(g2
g3
Ntp45
Rp46
(dp47
g7
S'10'
p48
sg9
g30
sg11
g12
sb(I0
I0
I156
tp49
sg1
(g2
g3
Ntp50
Rp51
(dp52
g7
g17
sg9
g25
sg11
S'20'
p53
sb(I0
I0
I144
tp54
sg1
(g2
g3
Ntp55
Rp56
(dp57
g7
S'19'
p58
sg9
g10
sg11
S'12'
p59
sb(I0
I325
I0
tp60
sg1
(g2
g3
Ntp61
Rp62
(dp63
g7
S'25'
p64
sg9
g10
sg11
S'9'
p65
sb(I26
I0
I0
tp66
sg1
(g2
g3
Ntp67
Rp68
(dp69
g7
S'23'
p70
sg9
g10
sg11
S'6'
p71
sb(I26
I0
I0
tp72
sg1
(g2
g3
Ntp73
Rp74
(dp75
g7
S'19'
p76
sg9
g10
sg11
S'8'
p77
sb(I0
I82
I0
tp78
sg1
(g2
g3
Ntp79
Rp80
(dp81
g7
g17
sg9
g25
sg11
S'14'
p82
sb(I0
I0
I114
tp83
sg1
(g2
g3
Ntp84
Rp85
(dp86
g7
S'11'
p87
sg9
g30
sg11
g37
sb(I0
I0
I68
tp88
sg1
(g2
g3
Ntp89
Rp90
(dp91
g7
g17
sg9
g30
sg11
S'14'
p92
sb(I0
I0
I343
tp93
sg1
(g2
g3
Ntp94
Rp95
(dp96
g7
S'10'
p97
sg9
g10
sg11
g12
sb(I0
I1
I1
tp98
sg1
(g2
g3
Ntp99
Rp100
(dp101
g7
S'11'
p102
sg9
g25
sg11
g37
sb(I0
I0
I41
tp103
sg1
(g2
g3
Ntp104
Rp105
(dp106
g7
g17
sg9
g18
sg11
S'20'
p107
sb(I68
I160
I3
tp108
sg1
(g2
g3
Ntp109
Rp110
(dp111
g7
S'17'
p112
sg9
g10
sg11
S'4'
p113
sb(I0
I23
I0
tp114
sg1
(g2
g3
Ntp115
Rp116
(dp117
g7
S'23'
p118
sg9
g10
sg11
S'24'
p119
sb(I0
I254
I0
tp120
sg1
(g2
g3
Ntp121
Rp122
(dp123
g7
S'19'
p124
sg9
g10
sg11
S'19'
p125
sb(I1
I430
I0
tp126
sg1
(g2
g3
Ntp127
Rp128
(dp129
g7
g12
sg9
g18
sg11
S'12'
p130
sb(I2
I12
I1
tp131
sg1
(g2
g3
Ntp132
Rp133
(dp134
g7
g113
sg9
g18
sg11
S'2'
p135
sb(I4
I10
I0
tp136
sg1
(g2
g3
Ntp137
Rp138
(dp139
g7
g65
sg9
g18
sg11
g135
sb(I2
I8
I0
tp140
sg1
(g2
g3
Ntp141
Rp142
(dp143
g7
S'11'
p144
sg9
g25
sg11
g77
sb(I0
I0
I28
tp145
sg1
(g2
g3
Ntp146
Rp147
(dp148
g7
g113
sg9
g10
sg11
S'31'
p149
sb(I0
I3
I0
tp150
sg1
(g2
g3
Ntp151
Rp152
(dp153
g7
S'11'
p154
sg9
g30
sg11
g77
sb(I0
I0
I73
tp155
sg1
(g2
g3
Ntp156
Rp157
(dp158
g7
g135
sg9
g30
sg11
g65
sb(I0
I0
I101
tp159
sg1
(g2
g3
Ntp160
Rp161
(dp162
g7
S'11'
p163
sg9
g10
sg11
S'27'
p164
sb(I0
I7
I0
tp165
sg1
(g2
g3
Ntp166
Rp167
(dp168
g7
S'11'
p169
sg9
g18
sg11
g77
sb(I2
I6
I0
tp170
sg1
(g2
g3
Ntp171
Rp172
(dp173
g7
g65
sg9
g25
sg11
g135
sb(I0
I0
I12
tp174
sg1
(g2
g3
Ntp175
Rp176
(dp177
g7
g113
sg9
g25
sg11
g135
sb(I0
I0
I3
tp178
sg1
(g2
g3
Ntp179
Rp180
(dp181
g7
g12
sg9
g25
sg11
S'12'
p182
sb(I0
I0
I123
tp183
sg1
(g2
g3
Ntp184
Rp185
(dp186
g7
g17
sg9
g10
sg11
S'13'
p187
sb(I0
I4
I0
tp188
sg1
(g2
g3
Ntp189
Rp190
(dp191
g7
S'21'
p192
sg9
g10
sg11
S'24'
p193
sb(I0
I477
I0
tp194
sg1
(g2
g3
Ntp195
Rp196
(dp197
g7
g37
sg9
g30
sg11
g65
sb(I0
I0
I104
tp198
sg1
(g2
g3
Ntp199
Rp200
(dp201
g7
S'20'
p202
sg9
g10
sg11
S'26'
p203
sb(I0
I594
I0
tp204
sg1
(g2
g3
Ntp205
Rp206
(dp207
g7
g113
sg9
g25
sg11
g12
sb(I0
I0
I16
tp208
sg1
(g2
g3
Ntp209
Rp210
(dp211
g7
S'25'
p212
sg9
g10
sg11
S'23'
p213
sb(I0
I233
I0
tp214
sg1
(g2
g3
Ntp215
Rp216
(dp217
g7
g37
sg9
g25
sg11
g65
sb(I0
I0
I51
tp218
sg1
(g2
g3
Ntp219
Rp220
(dp221
g7
g65
sg9
g30
sg11
g135
sb(I0
I0
I8
tp222
sg1
(g2
g3
Ntp223
Rp224
(dp225
g7
S'22'
p226
sg9
g10
sg11
S'25'
p227
sb(I0
I301
I0
tp228
sg1
(g2
g3
Ntp229
Rp230
(dp231
g7
g135
sg9
g10
sg11
S'18'
p232
sb(I2
I5
I0
tp233
sg1
(g2
g3
Ntp234
Rp235
(dp236
g7
S'24'
p237
sg9
g10
sg11
S'15'
p238
sb(I154
I0
I0
tp239
sg1
(g2
g3
Ntp240
Rp241
(dp242
g7
g37
sg9
g30
sg11
g12
sb(I0
I0
I39
tp243
sg1
(g2
g3
Ntp244
Rp245
(dp246
g7
g65
sg9
g30
sg11
S'12'
p247
sb(I0
I0
I292
tp248
sg1
(g2
g3
Ntp249
Rp250
(dp251
g7
S'22'
p252
sg9
g10
sg11
S'18'
p253
sb(I221
I0
I0
tp254
sg1
(g2
g3
Ntp255
Rp256
(dp257
g7
g65
sg9
g25
sg11
S'12'
p258
sb(I0
I0
I132
tp259
sg1
(g2
g3
Ntp260
Rp261
(dp262
g7
g77
sg9
g30
sg11
g135
sb(I0
I0
I4
tp263
sg1
(g2
g3
Ntp264
Rp265
(dp266
g7
S'25'
p267
sg9
g10
sg11
S'30'
p268
sb(I0
I95
I0
tp269
sg1
(g2
g3
Ntp270
Rp271
(dp272
g7
g65
sg9
g10
sg11
S'30'
p273
sb(I0
I17
I0
tp274
sg1
(g2
g3
Ntp275
Rp276
(dp277
g7
g77
sg9
g18
sg11
g135
sb(I3
I11
I0
tp278
sg1
(g2
g3
Ntp279
Rp280
(dp281
g7
S'22'
p282
sg9
g10
sg11
S'24'
p283
sb(I0
I325
I0
tp284
sg1
(g2
g3
Ntp285
Rp286
(dp287
g7
g77
sg9
g10
sg11
S'31'
p288
sbg38
sg1
(g2
g3
Ntp289
Rp290
(dp291
g7
g71
sg9
g30
sg11
S'13'
p292
sb(I0
I0
I372
tp293
sg1
(g2
g3
Ntp294
Rp295
(dp296
g7
g37
sg9
g10
sg11
S'25'
p297
sb(I0
I14
I0
tp298
sg1
(g2
g3
Ntp299
Rp300
(dp301
g7
S'24'
p302
sg9
g10
sg11
g113
sb(I7
I0
I0
tp303
sg1
(g2
g3
Ntp304
Rp305
(dp306
g7
g71
sg9
g10
sg11
S'11'
p307
sbg38
sg1
(g2
g3
Ntp308
Rp309
(dp310
g7
g71
sg9
g25
sg11
S'13'
p311
sb(I0
I0
I151
tp312
sg1
(g2
g3
Ntp313
Rp314
(dp315
g7
S'18'
p316
sg9
g10
sg11
g37
sb(I0
I70
I0
tp317
sg1
(g2
g3
Ntp318
Rp319
(dp320
g7
S'23'
p321
sg9
g10
sg11
S'29'
p322
sb(I0
I141
I0
tp323
sg1
(g2
g3
Ntp324
Rp325
(dp326
g7
S'25'
p327
sg9
g10
sg11
S'17'
p328
sb(I163
I0
I0
tp329
sg1
(g2
g3
Ntp330
Rp331
(dp332
g7
g113
sg9
g18
sg11
S'18'
p333
sb(I3
I11
I1
tp334
sg1
(g2
g3
Ntp335
Rp336
(dp337
g7
S'26'
p338
sg9
g10
sg11
S'25'
p339
sb(I0
I150
I0
tp340
sg1
(g2
g3
Ntp341
Rp342
(dp343
g7
g37
sg9
g25
sg11
S'20'
p344
sb(I0
I0
I166
tp345
sg1
(g2
g3
Ntp346
Rp347
(dp348
g7
S'20'
p349
sg9
g10
sg11
S'15'
p350
sb(I0
I548
I0
tp351
sg1
(g2
g3
Ntp352
Rp353
(dp354
g7
g37
sg9
g18
sg11
S'14'
p355
sb(I6
I10
I0
tp356
sg1
(g2
g3
Ntp357
Rp358
(dp359
g7
g37
sg9
g30
sg11
S'20'
p360
sb(I0
I0
I424
tp361
sg1
(g2
g3
Ntp362
Rp363
(dp364
g7
S'26'
p365
sg9
g10
sg11
S'18'
p366
sb(I122
I0
I0
tp367
sg1
(g2
g3
Ntp368
Rp369
(dp370
g7
S'26'
p371
sg9
g10
sg11
S'12'
p372
sb(I89
I0
I0
tp373
sg1
(g2
g3
Ntp374
Rp375
(dp376
g7
S'11'
p377
sg9
g10
sg11
S'10'
p378
sbg38
sg1
(g2
g3
Ntp379
Rp380
(dp381
g7
g37
sg9
g25
sg11
S'14'
p382
sb(I0
I0
I107
tp383
sg1
(g2
g3
Ntp384
Rp385
(dp386
g7
g37
sg9
g18
sg11
S'20'
p387
sb(I63
I219
I4
tp388
sg1
(g2
g3
Ntp389
Rp390
(dp391
g7
g37
sg9
g10
sg11
S'20'
p392
sb(I10
I1
I0
tp393
sg1
(g2
g3
Ntp394
Rp395
(dp396
g7
g17
sg9
g10
sg11
S'20'
p397
sb(I7
I3
I0
tp398
sg1
(g2
g3
Ntp399
Rp400
(dp401
g7
S'24'
p402
sg9
g10
sg11
S'23'
p403
sb(I0
I287
I0
tp404
sg1
(g2
g3
Ntp405
Rp406
(dp407
g7
g37
sg9
g30
sg11
S'14'
p408
sb(I0
I0
I368
tp409
sg1
(g2
g3
Ntp410
Rp411
(dp412
g7
S'10'
p413
sg9
g10
sg11
S'12'
p414
sb(I1
I24
I1
tp415
sg1
(g2
g3
Ntp416
Rp417
(dp418
g7
S'21'
p419
sg9
g10
sg11
S'23'
p420
sb(I0
I579
I0
tp421
sg1
(g2
g3
Ntp422
Rp423
(dp424
g7
g12
sg9
g30
sg11
S'14'
p425
sb(I0
I0
I304
tp426
sg1
(g2
g3
Ntp427
Rp428
(dp429
g7
g37
sg9
g30
sg11
S'13'
p430
sb(I0
I0
I382
tp431
sg1
(g2
g3
Ntp432
Rp433
(dp434
g7
S'10'
p435
sg9
g18
sg11
g77
sb(I10
I42
I1
tp436
sg1
(g2
g3
Ntp437
Rp438
(dp439
g7
g113
sg9
g10
sg11
S'17'
p440
sb(I2
I1
I0
tp441
sg1
(g2
g3
Ntp442
Rp443
(dp444
g7
S'18'
p445
sg9
g10
sg11
S'13'
p446
sb(I0
I390
I0
tp447
sg1
(g2
g3
Ntp448
Rp449
(dp450
g7
g113
sg9
g18
sg11
S'14'
p451
sb(I4
I2
I0
tp452
sg1
(g2
g3
Ntp453
Rp454
(dp455
g7
g17
sg9
g10
sg11
S'22'
p456
sb(I0
I13
I0
tp457
sg1
(g2
g3
Ntp458
Rp459
(dp460
g7
g12
sg9
g25
sg11
S'14'
p461
sb(I0
I0
I120
tp462
sg1
(g2
g3
Ntp463
Rp464
(dp465
g7
g12
sg9
g30
sg11
g135
sb(I0
I0
I10
tp466
sg1
(g2
g3
Ntp467
Rp468
(dp469
g7
S'10'
p470
sg9
g25
sg11
g77
sb(I0
I0
I163
tp471
sg1
(g2
g3
Ntp472
Rp473
(dp474
g7
S'19'
p475
sg9
g10
sg11
S'27'
p476
sb(I0
I366
I0
tp477
sg1
(g2
g3
Ntp478
Rp479
(dp480
g7
g12
sg9
g18
sg11
g135
sb(I5
I9
I0
tp481
sg1
(g2
g3
Ntp482
Rp483
(dp484
g7
g12
sg9
g18
sg11
S'14'
p485
sb(I4
I18
I0
tp486
sg1
(g2
g3
Ntp487
Rp488
(dp489
g7
g65
sg9
g25
sg11
g37
sb(I0
I0
I42
tp490
sg1
(g2
g3
Ntp491
Rp492
(dp493
g7
g113
sg9
g10
sg11
S'18'
p494
sb(I1
I1
I0
tp495
sg1
(g2
g3
Ntp496
Rp497
(dp498
g7
g12
sg9
g25
sg11
g135
sb(I0
I0
I6
tp499
sg1
(g2
g3
Ntp500
Rp501
(dp502
g7
S'10'
p503
sg9
g30
sg11
g77
sb(I0
I0
I313
tp504
sg1
(g2
g3
Ntp505
Rp506
(dp507
g7
S'23'
p508
sg9
g10
sg11
g113
sb(I11
I0
I0
tp509
sg1
(g2
g3
Ntp510
Rp511
(dp512
g7
g17
sg9
g30
sg11
S'12'
p513
sb(I0
I0
I277
tp514
sg1
(g2
g3
Ntp515
Rp516
(dp517
g7
S'10'
p518
sg9
g10
sg11
S'23'
p519
sb(I0
I53
I0
tp520
sg1
(g2
g3
Ntp521
Rp522
(dp523
g7
S'20'
p524
sg9
g10
sg11
S'20'
p525
sb(I1
I777
I0
tp526
sg1
(g2
g3
Ntp527
Rp528
(dp529
g7
g77
sg9
g30
sg11
g37
sb(I0
I0
I75
tp530
sg1
(g2
g3
Ntp531
Rp532
(dp533
g7
g12
sg9
g10
sg11
S'26'
p534
sb(I0
I8
I0
tp535
sg1
(g2
g3
Ntp536
Rp537
(dp538
g7
g17
sg9
g25
sg11
S'12'
p539
sb(I0
I0
I115
tp540
sg1
(g2
g3
Ntp541
Rp542
(dp543
g7
S'18'
p544
sg9
g10
sg11
g135
sb(I0
I11
I0
tp545
sg1
(g2
g3
Ntp546
Rp547
(dp548
g7
g12
sg9
g30
sg11
g37
sb(I0
I0
I61
tp549
sg1
(g2
g3
Ntp550
Rp551
(dp552
g7
g37
sg9
g10
sg11
g71
sbg38
sg1
(g2
g3
Ntp553
Rp554
(dp555
g7
g17
sg9
g10
sg11
S'28'
p556
sb(I0
I8
I0
tp557
sg1
(g2
g3
Ntp558
Rp559
(dp560
g7
S'17'
p561
sg9
g10
sg11
S'17'
p562
sb(I0
I426
I0
tp563
sg1
(g2
g3
Ntp564
Rp565
(dp566
g7
g77
sg9
g10
sg11
g37
sb(I0
I2
I0
tp567
sg1
(g2
g3
Ntp568
Rp569
(dp570
g7
g12
sg9
g25
sg11
g37
sb(I0
I0
I34
tp571
sg1
(g2
g3
Ntp572
Rp573
(dp574
g7
S'23'
p575
sg9
g10
sg11
S'18'
p576
sb(I222
I0
I0
tp577
sg1
(g2
g3
Ntp578
Rp579
(dp580
g7
S'23'
p581
sg9
g10
sg11
S'30'
p582
sb(I0
I145
I0
tp583
sg1
(g2
g3
Ntp584
Rp585
(dp586
g7
S'10'
p587
sg9
g30
sg11
S'11'
p588
sb(I0
I0
I639
tp589
sg1
(g2
g3
Ntp590
Rp591
(dp592
g7
S'23'
p593
sg9
g10
sg11
g135
sb(I5
I0
I0
tp594
sg1
(g2
g3
Ntp595
Rp596
(dp597
g7
S'10'
p598
sg9
g25
sg11
S'11'
p599
sb(I0
I0
I288
tp600
sg1
(g2
g3
Ntp601
Rp602
(dp603
g7
g77
sg9
g10
sg11
S'11'
p604
sb(I2
I3
I0
tp605
sg1
(g2
g3
Ntp606
Rp607
(dp608
g7
g135
sg9
g25
sg11
g65
sb(I0
I0
I50
tp609
sg1
(g2
g3
Ntp610
Rp611
(dp612
g7
S'24'
p613
sg9
g10
sg11
S'22'
p614
sb(I0
I303
I0
tp615
sg1
(g2
g3
Ntp616
Rp617
(dp618
g7
S'26'
p619
sg9
g10
sg11
S'10'
p620
sb(I28
I0
I0
tp621
sg1
(g2
g3
Ntp622
Rp623
(dp624
g7
S'21'
p625
sg9
g10
sg11
g65
sb(I0
I108
I0
tp626
sg1
(g2
g3
Ntp627
Rp628
(dp629
g7
g77
sg9
g25
sg11
S'11'
p630
sb(I0
I0
I80
tp631
sg1
(g2
g3
Ntp632
Rp633
(dp634
g7
S'10'
p635
sg9
g10
sg11
S'11'
p636
sb(I0
I2
I0
tp637
sg1
(g2
g3
Ntp638
Rp639
(dp640
g7
S'11'
p641
sg9
g10
sg11
S'16'
p642
sb(I1
I4
I0
tp643
sg1
(g2
g3
Ntp644
Rp645
(dp646
g7
g77
sg9
g30
sg11
S'11'
p647
sb(I0
I0
I154
tp648
sg1
(g2
g3
Ntp649
Rp650
(dp651
g7
S'17'
p652
sg9
g10
sg11
S'14'
p653
sb(I0
I420
I0
tp654
sg1
(g2
g3
Ntp655
Rp656
(dp657
g7
g37
sg9
g10
sg11
S'13'
p658
sb(I3
I3
I0
tp659
sg1
(g2
g3
Ntp660
Rp661
(dp662
g7
g135
sg9
g25
sg11
S'21'
p663
sb(I0
I0
I71
tp664
sg1
(g2
g3
Ntp665
Rp666
(dp667
g7
g65
sg9
g10
sg11
S'31'
p668
sb(I0
I5
I0
tp669
sg1
(g2
g3
Ntp670
Rp671
(dp672
g7
g77
sg9
g10
sg11
S'29'
p673
sb(I0
I14
I0
tp674
sg1
(g2
g3
Ntp675
Rp676
(dp677
g7
g37
sg9
g10
sg11
g65
sb(I0
I2
I0
tp678
sg1
(g2
g3
Ntp679
Rp680
(dp681
g7
S'18'
p682
sg9
g10
sg11
g77
sb(I0
I84
I0
tp683
sg1
(g2
g3
Ntp684
Rp685
(dp686
g7
g12
sg9
g25
sg11
S'19'
p687
sb(I0
I0
I79
tp688
sg1
(g2
g3
Ntp689
Rp690
(dp691
g7
S'19'
p692
sg9
g10
sg11
S'21'
p693
sb(I474
I0
I0
tp694
sg1
(g2
g3
Ntp695
Rp696
(dp697
g7
g65
sg9
g25
sg11
S'14'
p698
sb(I0
I0
I129
tp699
sg1
(g2
g3
Ntp700
Rp701
(dp702
g7
g12
sg9
g30
sg11
S'19'
p703
sb(I0
I0
I390
tp704
sg1
(g2
g3
Ntp705
Rp706
(dp707
g7
g37
sg9
g10
sg11
S'22'
p708
sb(I0
I14
I0
tp709
sg1
(g2
g3
Ntp710
Rp711
(dp712
g7
g71
sg9
g25
sg11
S'10'
p713
sb(I0
I0
I54
tp714
sg1
(g2
g3
Ntp715
Rp716
(dp717
g7
g12
sg9
g10
sg11
S'27'
p718
sb(I0
I11
I0
tp719
sg1
(g2
g3
Ntp720
Rp721
(dp722
g7
S'24'
p723
sg9
g10
sg11
S'26'
p724
sb(I0
I173
I0
tp725
sg1
(g2
g3
Ntp726
Rp727
(dp728
g7
g12
sg9
g10
sg11
S'12'
p729
sb(I3
I3
I0
tp730
sg1
(g2
g3
Ntp731
Rp732
(dp733
g7
g37
sg9
g25
sg11
g71
sb(I0
I0
I25
tp734
sg1
(g2
g3
Ntp735
Rp736
(dp737
g7
g12
sg9
g10
sg11
S'19'
p738
sb(I5
I5
I0
tp739
sg1
(g2
g3
Ntp740
Rp741
(dp742
g7
S'26'
p743
sg9
g10
sg11
S'15'
p744
sb(I112
I0
I0
tp745
sg1
(g2
g3
Ntp746
Rp747
(dp748
g7
g65
sg9
g18
sg11
S'14'
p749
sb(I7
I5
I0
tp750
sg1
(g2
g3
Ntp751
Rp752
(dp753
g7
g65
sg9
g18
sg11
g71
sb(I6
I10
I1
tp754
sg1
(g2
g3
Ntp755
Rp756
(dp757
g7
S'25'
p758
sg9
g10
sg11
S'24'
p759
sb(I0
I192
I0
tp760
sg1
(g2
g3
Ntp761
Rp762
(dp763
g7
g17
sg9
g10
sg11
S'31'
p764
sb(I0
I2
I0
tp765
sg1
(g2
g3
Ntp766
Rp767
(dp768
g7
S'26'
p769
sg9
g10
sg11
S'23'
p770
sb(I0
I175
I0
tp771
sg1
(g2
g3
Ntp772
Rp773
(dp774
g7
g12
sg9
g10
sg11
g12
sb(I1
I0
I0
tp775
sg1
(g2
g3
Ntp776
Rp777
(dp778
g7
S'18'
p779
sg9
g10
sg11
S'30'
p780
sb(I0
I282
I0
tp781
sg1
(g2
g3
Ntp782
Rp783
(dp784
g7
S'24'
p785
sg9
g10
sg11
S'12'
p786
sb(I123
I0
I0
tp787
sg1
(g2
g3
Ntp788
Rp789
(dp790
g7
g135
sg9
g18
sg11
S'12'
p791
sb(I2
I6
I0
tp792
sg1
(g2
g3
Ntp793
Rp794
(dp795
g7
g37
sg9
g10
sg11
S'31'
p796
sb(I0
I2
I0
tp797
sg1
(g2
g3
Ntp798
Rp799
(dp800
g7
g37
sg9
g30
sg11
g71
sb(I0
I0
I49
tp801
sg1
(g2
g3
Ntp802
Rp803
(dp804
g7
g65
sg9
g25
sg11
S'15'
p805
sb(I0
I0
I124
tp806
sg1
(g2
g3
Ntp807
Rp808
(dp809
g7
S'25'
p810
sg9
g10
sg11
S'29'
p811
sb(I0
I90
I0
tp812
sg1
(g2
g3
Ntp813
Rp814
(dp815
g7
S'17'
p816
sg9
g10
sg11
S'31'
p817
sb(I0
I118
I0
tp818
sg1
(g2
g3
Ntp819
Rp820
(dp821
g7
S'11'
p822
sg9
g25
sg11
S'16'
p823
sb(I0
I0
I104
tp824
sg1
(g2
g3
Ntp825
Rp826
(dp827
g7
g135
sg9
g30
sg11
S'12'
p828
sb(I0
I0
I289
tp829
sg1
(g2
g3
Ntp830
Rp831
(dp832
g7
S'25'
p833
sg9
g10
sg11
g71
sb(I17
I0
I0
tp834
sg1
(g2
g3
Ntp835
Rp836
(dp837
g7
S'11'
p838
sg9
g30
sg11
S'16'
p839
sb(I0
I0
I343
tp840
sg1
(g2
g3
Ntp841
Rp842
(dp843
g7
g135
sg9
g25
sg11
S'12'
p844
sb(I0
I0
I126
tp845
sg1
(g2
g3
Ntp846
Rp847
(dp848
g7
g77
sg9
g18
sg11
S'14'
p849
sb(I5
I7
I0
tp850
sg1
(g2
g3
Ntp851
Rp852
(dp853
g7
S'25'
p854
sg9
g10
sg11
S'12'
p855
sb(I97
I0
I0
tp856
sg1
(g2
g3
Ntp857
Rp858
(dp859
g7
g113
sg9
g30
sg11
g37
sb(I0
I0
I77
tp860
sg1
(g2
g3
Ntp861
Rp862
(dp863
g7
g113
sg9
g25
sg11
g37
sb(I0
I0
I32
tp864
sg1
(g2
g3
Ntp865
Rp866
(dp867
g7
g17
sg9
g25
sg11
g71
sb(I0
I0
I27
tp868
sg1
(g2
g3
Ntp869
Rp870
(dp871
g7
g71
sg9
g10
sg11
S'31'
p872
sb(I0
I2
I0
tp873
sg1
(g2
g3
Ntp874
Rp875
(dp876
g7
g71
sg9
g18
sg11
S'12'
p877
sb(I0
I4
I1
tp878
sg1
(g2
g3
Ntp879
Rp880
(dp881
g7
g37
sg9
g25
sg11
S'12'
p882
sb(I0
I0
I110
tp883
sg1
(g2
g3
Ntp884
Rp885
(dp886
g7
S'20'
p887
sg9
g10
sg11
S'22'
p888
sb(I0
I931
I0
tp889
sg1
(g2
g3
Ntp890
Rp891
(dp892
g7
g77
sg9
g25
sg11
S'14'
p893
sb(I0
I0
I117
tp894
sg1
(g2
g3
Ntp895
Rp896
(dp897
g7
g77
sg9
g30
sg11
S'14'
p898
sb(I0
I0
I330
tp899
sg1
(g2
g3
Ntp900
Rp901
(dp902
g7
S'26'
p903
sg9
g10
sg11
S'20'
p904
sb(I133
I0
I0
tp905
sg1
(g2
g3
Ntp906
Rp907
(dp908
g7
g37
sg9
g30
sg11
S'12'
p909
sb(I0
I0
I296
tp910
sg1
(g2
g3
Ntp911
Rp912
(dp913
g7
S'11'
p914
sg9
g25
sg11
S'13'
p915
sb(I0
I0
I130
tp916
sg1
(g2
g3
Ntp917
Rp918
(dp919
g7
g113
sg9
g25
sg11
S'11'
p920
sb(I0
I0
I63
tp921
sg1
(g2
g3
Ntp922
Rp923
(dp924
g7
S'11'
p925
sg9
g30
sg11
S'11'
p926
sb(I0
I0
I151
tp927
sg1
(g2
g3
Ntp928
Rp929
(dp930
g7
g12
sg9
g25
sg11
S'13'
p931
sb(I0
I0
I158
tp932
sg1
(g2
g3
Ntp933
Rp934
(dp935
g7
S'11'
p936
sg9
g30
sg11
S'13'
p937
sb(I0
I0
I341
tp938
sg1
(g2
g3
Ntp939
Rp940
(dp941
g7
g113
sg9
g30
sg11
S'11'
p942
sb(I0
I0
I145
tp943
sg1
(g2
g3
Ntp944
Rp945
(dp946
g7
S'11'
p947
sg9
g25
sg11
S'11'
p948
sb(I0
I0
I68
tp949
sg1
(g2
g3
Ntp950
Rp951
(dp952
g7
S'21'
p953
sg9
g10
sg11
S'21'
p954
sb(I0
I408
I0
tp955
sg1
(g2
g3
Ntp956
Rp957
(dp958
g7
g12
sg9
g30
sg11
S'12'
p959
sb(I0
I0
I286
tp960
sg1
(g2
g3
Ntp961
Rp962
(dp963
g7
S'11'
p964
sg9
g10
sg11
S'11'
p965
sb(I0
I2
I0
tp966
sg1
(g2
g3
Ntp967
Rp968
(dp969
g7
g71
sg9
g10
sg11
S'25'
p970
sb(I0
I10
I0
tp971
sg1
(g2
g3
Ntp972
Rp973
(dp974
g7
g12
sg9
g30
sg11
g71
sb(I0
I0
I50
tp975
sg1
(g2
g3
Ntp976
Rp977
(dp978
g7
S'21'
p979
sg9
g10
sg11
S'29'
p980
sb(I0
I264
I0
tp981
sg1
(g2
g3
Ntp982
Rp983
(dp984
g7
g12
sg9
g25
sg11
g71
sb(I0
I0
I30
tp985
sg1
(g2
g3
Ntp986
Rp987
(dp988
g7
S'11'
p989
sg9
g10
sg11
S'13'
p990
sb(I2
I5
I0
tp991
sg1
(g2
g3
Ntp992
Rp993
(dp994
g7
S'22'
p995
sg9
g10
sg11
S'22'
p996
sb(I0
I343
I0
tp997
sg1
(g2
g3
Ntp998
Rp999
(dp1000
g7
g17
sg9
g10
sg11
S'18'
p1001
sb(I3
I4
I1
tp1002
sg1
(g2
g3
Ntp1003
Rp1004
(dp1005
g7
S'22'
p1006
sg9
g10
sg11
S'15'
p1007
sb(I195
I0
I0
tp1008
sg1
(g2
g3
Ntp1009
Rp1010
(dp1011
g7
g77
sg9
g10
sg11
S'27'
p1012
sb(I0
I8
I0
tp1013
sg1
(g2
g3
Ntp1014
Rp1015
(dp1016
g7
g65
sg9
g30
sg11
S'19'
p1017
sb(I0
I0
I381
tp1018
sg1
(g2
g3
Ntp1019
Rp1020
(dp1021
g7
g113
sg9
g10
sg11
S'14'
p1022
sb(I4
I5
I0
tp1023
sg1
(g2
g3
Ntp1024
Rp1025
(dp1026
g7
S'20'
p1027
sg9
g10
sg11
S'12'
p1028
sb(I0
I434
I0
tp1029
sg1
(g2
g3
Ntp1030
Rp1031
(dp1032
g7
g65
sg9
g25
sg11
S'19'
p1033
sb(I0
I0
I70
tp1034
sg1
(g2
g3
Ntp1035
Rp1036
(dp1037
g7
S'25'
p1038
sg9
g10
sg11
S'21'
p1039
sb(I168
I0
I0
tp1040
sg1
(g2
g3
Ntp1041
Rp1042
(dp1043
g7
g135
sg9
g18
sg11
S'20'
p1044
sb(I46
I170
I4
tp1045
sg1
(g2
g3
Ntp1046
Rp1047
(dp1048
g7
S'19'
p1049
sg9
g10
sg11
S'13'
p1050
sb(I0
I376
I0
tp1051
sg1
(g2
g3
Ntp1052
Rp1053
(dp1054
g7
g65
sg9
g10
sg11
S'19'
p1055
sb(I3
I3
I0
tp1056
sg1
(g2
g3
Ntp1057
Rp1058
(dp1059
g7
g113
sg9
g30
sg11
S'14'
p1060
sb(I0
I0
I305
tp1061
sg1
(g2
g3
Ntp1062
Rp1063
(dp1064
g7
S'23'
p1065
sg9
g10
sg11
S'23'
p1066
sb(I0
I315
I0
tp1067
sg1
(g2
g3
Ntp1068
Rp1069
(dp1070
g7
g113
sg9
g25
sg11
S'14'
p1071
sb(I0
I0
I110
tp1072
sg1
(g2
g3
Ntp1073
Rp1074
(dp1075
g7
S'21'
p1076
sg9
g10
sg11
S'18'
p1077
sb(I0
I380
I0
tp1078
sg1
(g2
g3
Ntp1079
Rp1080
(dp1081
g7
g77
sg9
g10
sg11
S'26'
p1082
sb(I0
I7
I0
tp1083
sg1
(g2
g3
Ntp1084
Rp1085
(dp1086
g7
S'18'
p1087
sg9
g10
sg11
S'16'
p1088
sb(I0
I443
I0
tp1089
sg1
(g2
g3
Ntp1090
Rp1091
(dp1092
g7
S'21'
p1093
sg9
g10
sg11
S'22'
p1094
sb(I0
I644
I0
tp1095
sg1
(g2
g3
Ntp1096
Rp1097
(dp1098
g7
g71
sg9
g10
sg11
S'12'
p1099
sb(I1
I4
I0
tp1100
sg1
(g2
g3
Ntp1101
Rp1102
(dp1103
g7
g17
sg9
g18
sg11
g135
sb(I1
I7
I0
tp1104
sg1
(g2
g3
Ntp1105
Rp1106
(dp1107
g7
g77
sg9
g25
sg11
g65
sb(I0
I0
I43
tp1108
sg1
(g2
g3
Ntp1109
Rp1110
(dp1111
g7
S'11'
p1112
sg9
g30
sg11
g113
sb(I0
I0
I9
tp1113
sg1
(g2
g3
Ntp1114
Rp1115
(dp1116
g7
S'10'
p1117
sg9
g10
sg11
S'16'
p1118
sb(I3
I19
I3
tp1119
sg1
(g2
g3
Ntp1120
Rp1121
(dp1122
g7
g77
sg9
g30
sg11
S'18'
p1123
sb(I0
I0
I358
tp1124
sg1
(g2
g3
Ntp1125
Rp1126
(dp1127
g7
g77
sg9
g30
sg11
g65
sb(I0
I0
I107
tp1128
sg1
(g2
g3
Ntp1129
Rp1130
(dp1131
g7
g77
sg9
g25
sg11
S'18'
p1132
sb(I0
I0
I81
tp1133
sg1
(g2
g3
Ntp1134
Rp1135
(dp1136
g7
S'10'
p1137
sg9
g18
sg11
S'16'
p1138
sb(I16
I50
I1
tp1139
sg1
(g2
g3
Ntp1140
Rp1141
(dp1142
g7
S'11'
p1143
sg9
g18
sg11
g113
sb(I2
I12
I0
tp1144
sg1
(g2
g3
Ntp1145
Rp1146
(dp1147
g7
g135
sg9
g10
sg11
S'13'
p1148
sb(I3
I4
I0
tp1149
sg1
(g2
g3
Ntp1150
Rp1151
(dp1152
g7
g12
sg9
g10
sg11
S'22'
p1153
sb(I0
I18
I0
tp1154
sg1
(g2
g3
Ntp1155
Rp1156
(dp1157
g7
g71
sg9
g30
sg11
S'12'
p1158
sb(I0
I0
I278
tp1159
sg1
(g2
g3
Ntp1160
Rp1161
(dp1162
g7
g17
sg9
g25
sg11
g135
sb(I0
I0
I6
tp1163
sg1
(g2
g3
Ntp1164
Rp1165
(dp1166
g7
g65
sg9
g30
sg11
g113
sb(I0
I0
I10
tp1167
sg1
(g2
g3
Ntp1168
Rp1169
(dp1170
g7
g77
sg9
g10
sg11
S'18'
p1171
sb(I4
I3
I0
tp1172
sg1
(g2
g3
Ntp1173
Rp1174
(dp1175
g7
S'10'
p1176
sg9
g30
sg11
S'16'
p1177
sb(I0
I0
I1423
tp1178
sg1
(g2
g3
Ntp1179
Rp1180
(dp1181
g7
g17
sg9
g30
sg11
g135
sb(I0
I0
I8
tp1182
sg1
(g2
g3
Ntp1183
Rp1184
(dp1185
g7
g71
sg9
g25
sg11
S'11'
p1186
sb(I0
I0
I62
tp1187
sg1
(g2
g3
Ntp1188
Rp1189
(dp1190
g7
S'11'
p1191
sg9
g25
sg11
g113
sb(I0
I0
I9
tp1192
sg1
(g2
g3
Ntp1193
Rp1194
(dp1195
g7
S'10'
p1196
sg9
g25
sg11
S'16'
p1197
sb(I0
I0
I453
tp1198
sg1
(g2
g3
Ntp1199
Rp1200
(dp1201
g7
g77
sg9
g18
sg11
S'18'
p1202
sb(I3
I15
I0
tp1203
sg1
(g2
g3
Ntp1204
Rp1205
(dp1206
g7
g71
sg9
g25
sg11
S'12'
p1207
sb(I0
I0
I118
tp1208
sg1
(g2
g3
Ntp1209
Rp1210
(dp1211
g7
S'22'
p1212
sg9
g10
sg11
S'20'
p1213
sb(I318
I0
I0
tp1214
sg1
(g2
g3
Ntp1215
Rp1216
(dp1217
g7
S'17'
p1218
sg9
g10
sg11
g37
sb(I0
I76
I0
tp1219
sg1
(g2
g3
Ntp1220
Rp1221
(dp1222
g7
S'22'
p1223
sg9
g10
sg11
S'23'
p1224
sb(I0
I343
I0
tp1225
sg1
(g2
g3
Ntp1226
Rp1227
(dp1228
g7
S'10'
p1229
sg9
g25
sg11
g113
sb(I0
I0
I33
tp1230
sg1
(g2
g3
Ntp1231
Rp1232
(dp1233
g7
S'10'
p1234
sg9
g30
sg11
g113
sb(I0
I0
I37
tp1235
sg1
(g2
g3
Ntp1236
Rp1237
(dp1238
g7
S'22'
p1239
sg9
g10
sg11
g65
sb(I63
I0
I0
tp1240
sg1
(g2
g3
Ntp1241
Rp1242
(dp1243
g7
g37
sg9
g18
sg11
g135
sb(I6
I6
I1
tp1244
sg1
(g2
g3
Ntp1245
Rp1246
(dp1247
g7
S'10'
p1248
sg9
g18
sg11
g113
sb(I3
I41
I1
tp1249
sg1
(g2
g3
Ntp1250
Rp1251
(dp1252
g7
g71
sg9
g30
sg11
S'11'
p1253
sb(I0
I0
I154
tp1254
sg1
(g2
g3
Ntp1255
Rp1256
(dp1257
g7
g37
sg9
g30
sg11
g135
sb(I0
I0
I7
tp1258
sg1
(g2
g3
Ntp1259
Rp1260
(dp1261
g7
g37
sg9
g10
sg11
S'29'
p1262
sb(I0
I7
I0
tp1263
sg1
(g2
g3
Ntp1264
Rp1265
(dp1266
g7
S'17'
p1267
sg9
g10
sg11
g12
sb(I0
I32
I0
tp1268
sg1
(g2
g3
Ntp1269
Rp1270
(dp1271
g7
g37
sg9
g25
sg11
g135
sb(I0
I0
I7
tp1272
sg1
(g2
g3
Ntp1273
Rp1274
(dp1275
g7
g17
sg9
g30
sg11
g71
sb(I0
I0
I34
tp1276
sg1
(g2
g3
Ntp1277
Rp1278
(dp1279
g7
S'10'
p1280
sg9
g10
sg11
g113
sbg38
sg1
(g2
g3
Ntp1281
Rp1282
(dp1283
g7
S'19'
p1284
sg9
g10
sg11
g113
sb(I0
I18
I0
tp1285
sg1
(g2
g3
Ntp1286
Rp1287
(dp1288
g7
g17
sg9
g10
sg11
S'19'
p1289
sb(I4
I2
I0
tp1290
sg1
(g2
g3
Ntp1291
Rp1292
(dp1293
g7
S'10'
p1294
sg9
g30
sg11
S'10'
p1295
sb(I0
I0
I493
tp1296
sg1
(g2
g3
Ntp1297
Rp1298
(dp1299
g7
S'18'
p1300
sg9
g10
sg11
S'14'
p1301
sb(I0
I418
I0
tp1302
sg1
(g2
g3
Ntp1303
Rp1304
(dp1305
g7
S'18'
p1306
sg9
g10
sg11
S'10'
p1307
sb(I0
I125
I0
tp1308
sg1
(g2
g3
Ntp1309
Rp1310
(dp1311
g7
S'19'
p1312
sg9
g10
sg11
S'31'
p1313
sb(I0
I102
I0
tp1314
sg1
(g2
g3
Ntp1315
Rp1316
(dp1317
g7
S'10'
p1318
sg9
g25
sg11
S'10'
p1319
sb(I0
I0
I244
tp1320
sg1
(g2
g3
Ntp1321
Rp1322
(dp1323
g7
g65
sg9
g10
sg11
g113
sbg38
sg1
(g2
g3
Ntp1324
Rp1325
(dp1326
g7
S'10'
p1327
sg9
g10
sg11
S'10'
p1328
sb(I1
I9
I1
tp1329
sg1
(g2
g3
Ntp1330
Rp1331
(dp1332
g7
g17
sg9
g30
sg11
S'19'
p1333
sb(I0
I0
I334
tp1334
sg1
(g2
g3
Ntp1335
Rp1336
(dp1337
g7
S'10'
p1338
sg9
g18
sg11
S'10'
p1339
sb(I14
I52
I3
tp1340
sg1
(g2
g3
Ntp1341
Rp1342
(dp1343
g7
S'23'
p1344
sg9
g10
sg11
g65
sb(I55
I0
I0
tp1345
sg1
(g2
g3
Ntp1346
Rp1347
(dp1348
g7
g17
sg9
g25
sg11
S'19'
p1349
sb(I0
I0
I98
tp1350
sg1
(g2
g3
Ntp1351
Rp1352
(dp1353
g7
S'25'
p1354
sg9
g10
sg11
S'22'
p1355
sb(I0
I276
I0
tp1356
sg1
(g2
g3
Ntp1357
Rp1358
(dp1359
g7
S'25'
p1360
sg9
g10
sg11
S'18'
p1361
sb(I160
I0
I0
tp1362
sg1
(g2
g3
Ntp1363
Rp1364
(dp1365
g7
S'21'
p1366
sg9
g10
sg11
S'12'
p1367
sb(I0
I288
I0
tp1368
sg1
(g2
g3
Ntp1369
Rp1370
(dp1371
g7
S'11'
p1372
sg9
g25
sg11
S'17'
p1373
sb(I0
I0
I98
tp1374
sg1
(g2
g3
Ntp1375
Rp1376
(dp1377
g7
S'11'
p1378
sg9
g30
sg11
S'17'
p1379
sb(I0
I0
I329
tp1380
sg1
(g2
g3
Ntp1381
Rp1382
(dp1383
g7
S'10'
p1384
sg9
g10
sg11
S'26'
p1385
sb(I0
I41
I0
tp1386
sg1
(g2
g3
Ntp1387
Rp1388
(dp1389
g7
g17
sg9
g10
sg11
S'29'
p1390
sb(I0
I9
I0
tp1391
sg1
(g2
g3
Ntp1392
Rp1393
(dp1394
g7
S'10'
p1395
sg9
g10
sg11
S'30'
p1396
sb(I0
I43
I0
tp1397
sg1
(g2
g3
Ntp1398
Rp1399
(dp1400
g7
g135
sg9
g10
sg11
g17
sb(I1
I1
I0
tp1401
sg1
(g2
g3
Ntp1402
Rp1403
(dp1404
g7
S'11'
p1405
sg9
g10
sg11
S'17'
p1406
sb(I2
I2
I0
tp1407
sg1
(g2
g3
Ntp1408
Rp1409
(dp1410
g7
S'10'
p1411
sg9
g10
sg11
S'29'
p1412
sb(I0
I24
I0
tp1413
sg1
(g2
g3
Ntp1414
Rp1415
(dp1416
g7
S'19'
p1417
sg9
g10
sg11
S'16'
p1418
sb(I0
I356
I0
tp1419
sg1
(g2
g3
Ntp1420
Rp1421
(dp1422
g7
S'19'
p1423
sg9
g10
sg11
S'17'
p1424
sb(I0
I402
I0
tp1425
sg1
(g2
g3
Ntp1426
Rp1427
(dp1428
g7
g135
sg9
g30
sg11
g37
sb(I0
I0
I68
tp1429
sg1
(g2
g3
Ntp1430
Rp1431
(dp1432
g7
S'23'
p1433
sg9
g10
sg11
S'21'
p1434
sb(I222
I0
I0
tp1435
sg1
(g2
g3
Ntp1436
Rp1437
(dp1438
g7
S'17'
p1439
sg9
g10
sg11
S'26'
p1440
sb(I0
I469
I0
tp1441
sg1
(g2
g3
Ntp1442
Rp1443
(dp1444
g7
g65
sg9
g25
sg11
g65
sb(I0
I0
I47
tp1445
sg1
(g2
g3
Ntp1446
Rp1447
(dp1448
g7
S'18'
p1449
sg9
g10
sg11
S'25'
p1450
sb(I0
I556
I0
tp1451
sg1
(g2
g3
Ntp1452
Rp1453
(dp1454
g7
S'19'
p1455
sg9
g10
sg11
g17
sbg38
sg1
(g2
g3
Ntp1456
Rp1457
(dp1458
g7
S'23'
p1459
sg9
g10
sg11
S'20'
p1460
sb(I254
I0
I0
tp1461
sg1
(g2
g3
Ntp1462
Rp1463
(dp1464
g7
S'10'
p1465
sg9
g10
sg11
S'25'
p1466
sb(I0
I48
I0
tp1467
sg1
(g2
g3
Ntp1468
Rp1469
(dp1470
g7
g113
sg9
g10
sg11
S'22'
p1471
sb(I0
I14
I0
tp1472
sg1
(g2
g3
Ntp1473
Rp1474
(dp1475
g7
g71
sg9
g10
sg11
S'24'
p1476
sb(I0
I12
I0
tp1477
sg1
(g2
g3
Ntp1478
Rp1479
(dp1480
g7
S'23'
p1481
sg9
g10
sg11
S'12'
p1482
sb(I167
I0
I0
tp1483
sg1
(g2
g3
Ntp1484
Rp1485
(dp1486
g7
g17
sg9
g10
sg11
S'26'
p1487
sb(I0
I14
I0
tp1488
sg1
(g2
g3
Ntp1489
Rp1490
(dp1491
g7
S'21'
p1492
sg9
g10
sg11
S'27'
p1493
sb(I0
I370
I0
tp1494
sg1
(g2
g3
Ntp1495
Rp1496
(dp1497
g7
S'18'
p1498
sg9
g10
sg11
S'28'
p1499
sb(I0
I338
I0
tp1500
sg1
(g2
g3
Ntp1501
Rp1502
(dp1503
g7
S'10'
p1504
sg9
g10
sg11
S'17'
p1505
sb(I9
I23
I3
tp1506
sg1
(g2
g3
Ntp1507
Rp1508
(dp1509
g7
g71
sg9
g30
sg11
S'16'
p1510
sb(I0
I0
I379
tp1511
sg1
(g2
g3
Ntp1512
Rp1513
(dp1514
g7
g37
sg9
g10
sg11
S'21'
p1515
sb(I10
I2
I0
tp1516
sg1
(g2
g3
Ntp1517
Rp1518
(dp1519
g7
g71
sg9
g18
sg11
S'18'
p1520
sb(I4
I2
I0
tp1521
sg1
(g2
g3
Ntp1522
Rp1523
(dp1524
g7
g37
sg9
g25
sg11
S'21'
p1525
sb(I0
I0
I62
tp1526
sg1
(g2
g3
Ntp1527
Rp1528
(dp1529
g7
S'10'
p1530
sg9
g30
sg11
S'17'
p1531
sb(I0
I0
I1349
tp1532
sg1
(g2
g3
Ntp1533
Rp1534
(dp1535
g7
S'19'
p1536
sg9
g10
sg11
S'25'
p1537
sb(I0
I528
I0
tp1538
sg1
(g2
g3
Ntp1539
Rp1540
(dp1541
g7
S'10'
p1542
sg9
g25
sg11
S'17'
p1543
sb(I0
I0
I408
tp1544
sg1
(g2
g3
Ntp1545
Rp1546
(dp1547
g7
g37
sg9
g10
sg11
S'26'
p1548
sb(I0
I10
I0
tp1549
sg1
(g2
g3
Ntp1550
Rp1551
(dp1552
g7
g65
sg9
g18
sg11
S'12'
p1553
sb(I8
I6
I1
tp1554
sg1
(g2
g3
Ntp1555
Rp1556
(dp1557
g7
g37
sg9
g30
sg11
S'21'
p1558
sb(I0
I0
I413
tp1559
sg1
(g2
g3
Ntp1560
Rp1561
(dp1562
g7
g113
sg9
g25
sg11
g65
sb(I0
I0
I47
tp1563
sg1
(g2
g3
Ntp1564
Rp1565
(dp1566
g7
g113
sg9
g30
sg11
S'10'
p1567
sb(I0
I0
I121
tp1568
sg1
(g2
g3
Ntp1569
Rp1570
(dp1571
g7
g135
sg9
g10
sg11
S'19'
p1572
sb(I3
I1
I0
tp1573
sg1
(g2
g3
Ntp1574
Rp1575
(dp1576
g7
S'26'
p1577
sg9
g10
sg11
g65
sb(I31
I0
I0
tp1578
sg1
(g2
g3
Ntp1579
Rp1580
(dp1581
g7
g65
sg9
g10
sg11
S'21'
p1582
sb(I8
I0
I1
tp1583
sg1
(g2
g3
Ntp1584
Rp1585
(dp1586
g7
g113
sg9
g30
sg11
g65
sb(I0
I0
I92
tp1587
sg1
(g2
g3
Ntp1588
Rp1589
(dp1590
g7
g113
sg9
g25
sg11
S'10'
p1591
sb(I0
I0
I67
tp1592
sg1
(g2
g3
Ntp1593
Rp1594
(dp1595
g7
g37
sg9
g10
sg11
S'15'
p1596
sbg775
sg1
(g2
g3
Ntp1597
Rp1598
(dp1599
g7
g113
sg9
g10
sg11
S'10'
p1600
sb(I3
I0
I0
tp1601
sg1
(g2
g3
Ntp1602
Rp1603
(dp1604
g7
g135
sg9
g30
sg11
S'19'
p1605
sb(I0
I0
I364
tp1606
sg1
(g2
g3
Ntp1607
Rp1608
(dp1609
g7
g135
sg9
g25
sg11
S'19'
p1610
sb(I0
I0
I84
tp1611
sg1
(g2
g3
Ntp1612
Rp1613
(dp1614
g7
S'18'
p1615
sg9
g10
sg11
S'31'
p1616
sb(I0
I118
I0
tp1617
sg1
(g2
g3
Ntp1618
Rp1619
(dp1620
g7
g65
sg9
g10
sg11
S'29'
p1621
sb(I0
I4
I0
tp1622
sg1
(g2
g3
Ntp1623
Rp1624
(dp1625
g7
g113
sg9
g10
sg11
g65
sbg775
sg1
(g2
g3
Ntp1626
Rp1627
(dp1628
g7
g37
sg9
g25
sg11
S'19'
p1629
sb(I0
I0
I83
tp1630
sg1
(g2
g3
Ntp1631
Rp1632
(dp1633
g7
g71
sg9
g25
sg11
g37
sb(I0
I0
I30
tp1634
sg1
(g2
g3
Ntp1635
Rp1636
(dp1637
g7
S'20'
p1638
sg9
g10
sg11
g135
sb(I0
I18
I0
tp1639
sg1
(g2
g3
Ntp1640
Rp1641
(dp1642
g7
S'10'
p1643
sg9
g18
sg11
S'14'
p1644
sb(I14
I54
I0
tp1645
sg1
(g2
g3
Ntp1646
Rp1647
(dp1648
g7
g71
sg9
g30
sg11
g37
sb(I0
I0
I77
tp1649
sg1
(g2
g3
Ntp1650
Rp1651
(dp1652
g7
g12
sg9
g10
sg11
S'14'
p1653
sb(I4
I4
I1
tp1654
sg1
(g2
g3
Ntp1655
Rp1656
(dp1657
g7
S'10'
p1658
sg9
g10
sg11
S'14'
p1659
sb(I7
I17
I2
tp1660
sg1
(g2
g3
Ntp1661
Rp1662
(dp1663
g7
g37
sg9
g30
sg11
S'19'
p1664
sb(I0
I0
I359
tp1665
sg1
(g2
g3
Ntp1666
Rp1667
(dp1668
g7
g113
sg9
g18
sg11
g113
sb(I5
I9
I0
tp1669
sg1
(g2
g3
Ntp1670
Rp1671
(dp1672
g7
S'17'
p1673
sg9
g10
sg11
S'11'
p1674
sb(I0
I163
I0
tp1675
sg1
(g2
g3
Ntp1676
Rp1677
(dp1678
g7
S'10'
p1679
sg9
g25
sg11
S'14'
p1680
sb(I0
I0
I486
tp1681
sg1
(g2
g3
Ntp1682
Rp1683
(dp1684
g7
S'18'
p1685
sg9
g10
sg11
g113
sb(I0
I16
I0
tp1686
sg1
(g2
g3
Ntp1687
Rp1688
(dp1689
g7
g113
sg9
g30
sg11
g113
sb(I0
I0
I9
tp1690
sg1
(g2
g3
Ntp1691
Rp1692
(dp1693
g7
g113
sg9
g25
sg11
g113
sb(I0
I0
I7
tp1694
sg1
(g2
g3
Ntp1695
Rp1696
(dp1697
g7
g37
sg9
g10
sg11
S'19'
p1698
sb(I4
I1
I1
tp1699
sg1
(g2
g3
Ntp1700
Rp1701
(dp1702
g7
S'10'
p1703
sg9
g30
sg11
S'14'
p1704
sb(I0
I0
I1337
tp1705
sg1
(g2
g3
Ntp1706
Rp1707
(dp1708
g7
g37
sg9
g18
sg11
S'18'
p1709
sb(I1
I9
I0
tp1710
sg1
(g2
g3
Ntp1711
Rp1712
(dp1713
g7
g65
sg9
g18
sg11
g113
sb(I0
I8
I1
tp1714
sg1
(g2
g3
Ntp1715
Rp1716
(dp1717
g7
g71
sg9
g25
sg11
S'18'
p1718
sb(I0
I0
I82
tp1719
sg1
(g2
g3
Ntp1720
Rp1721
(dp1722
g7
S'11'
p1723
sg9
g25
sg11
S'15'
p1724
sb(I0
I0
I116
tp1725
sg1
(g2
g3
Ntp1726
Rp1727
(dp1728
g7
S'11'
p1729
sg9
g30
sg11
g12
sb(I0
I0
I41
tp1730
sg1
(g2
g3
Ntp1731
Rp1732
(dp1733
g7
g113
sg9
g10
sg11
S'15'
p1734
sb(I1
I2
I0
tp1735
sg1
(g2
g3
Ntp1736
Rp1737
(dp1738
g7
S'11'
p1739
sg9
g25
sg11
g12
sb(I0
I0
I16
tp1740
sg1
(g2
g3
Ntp1741
Rp1742
(dp1743
g7
g77
sg9
g10
sg11
S'24'
p1744
sb(I0
I6
I0
tp1745
sg1
(g2
g3
Ntp1746
Rp1747
(dp1748
g7
S'24'
p1749
sg9
g10
sg11
g65
sb(I42
I0
I0
tp1750
sg1
(g2
g3
Ntp1751
Rp1752
(dp1753
g7
g71
sg9
g30
sg11
S'18'
p1754
sb(I0
I0
I353
tp1755
sg1
(g2
g3
Ntp1756
Rp1757
(dp1758
g7
S'11'
p1759
sg9
g30
sg11
S'15'
p1760
sb(I0
I0
I333
tp1761
sg1
(g2
g3
Ntp1762
Rp1763
(dp1764
g7
S'11'
p1765
sg9
g10
sg11
S'24'
p1766
sb(I0
I12
I0
tp1767
sg1
(g2
g3
Ntp1768
Rp1769
(dp1770
g7
S'11'
p1771
sg9
g10
sg11
g12
sbg38
sg1
(g2
g3
Ntp1772
Rp1773
(dp1774
g7
S'23'
p1775
sg9
g10
sg11
g12
sb(I14
I0
I0
tp1776
sg1
(g2
g3
Ntp1777
Rp1778
(dp1779
g7
S'11'
p1780
sg9
g18
sg11
g71
sb(I4
I18
I0
tp1781
sg1
(g2
g3
Ntp1782
Rp1783
(dp1784
g7
S'22'
p1785
sg9
g10
sg11
g77
sb(I49
I0
I0
tp1786
sg1
(g2
g3
Ntp1787
Rp1788
(dp1789
g7
g71
sg9
g10
sg11
S'18'
p1790
sb(I4
I1
I1
tp1791
sg1
(g2
g3
Ntp1792
Rp1793
(dp1794
g7
g17
sg9
g10
sg11
S'25'
p1795
sb(I0
I9
I0
tp1796
sg1
(g2
g3
Ntp1797
Rp1798
(dp1799
g7
S'11'
p1800
sg9
g10
sg11
S'15'
p1801
sb(I0
I4
I0
tp1802
sg1
(g2
g3
Ntp1803
Rp1804
(dp1805
g7
g77
sg9
g30
sg11
S'13'
p1806
sb(I0
I0
I337
tp1807
sg1
(g2
g3
Ntp1808
Rp1809
(dp1810
g7
g113
sg9
g10
sg11
S'12'
p1811
sb(I3
I1
I0
tp1812
sg1
(g2
g3
Ntp1813
Rp1814
(dp1815
g7
g17
sg9
g10
sg11
g77
sb(I0
I2
I0
tp1816
sg1
(g2
g3
Ntp1817
Rp1818
(dp1819
g7
S'18'
p1820
sg9
g10
sg11
S'19'
p1821
sb(I432
I0
I0
tp1822
sg1
(g2
g3
Ntp1823
Rp1824
(dp1825
g7
g113
sg9
g18
sg11
S'12'
p1826
sb(I14
I6
I0
tp1827
sg1
(g2
g3
Ntp1828
Rp1829
(dp1830
g7
g135
sg9
g30
sg11
g135
sb(I0
I0
I6
tp1831
sg1
(g2
g3
Ntp1832
Rp1833
(dp1834
g7
g65
sg9
g10
sg11
S'26'
p1835
sb(I0
I8
I0
tp1836
sg1
(g2
g3
Ntp1837
Rp1838
(dp1839
g7
S'19'
p1840
sg9
g10
sg11
S'26'
p1841
sb(I0
I468
I0
tp1842
sg1
(g2
g3
Ntp1843
Rp1844
(dp1845
g7
g113
sg9
g30
sg11
S'12'
p1846
sb(I0
I0
I301
tp1847
sg1
(g2
g3
Ntp1848
Rp1849
(dp1850
g7
g17
sg9
g25
sg11
g65
sb(I0
I0
I36
tp1851
sg1
(g2
g3
Ntp1852
Rp1853
(dp1854
g7
g113
sg9
g25
sg11
S'12'
p1855
sb(I0
I0
I125
tp1856
sg1
(g2
g3
Ntp1857
Rp1858
(dp1859
g7
S'26'
p1860
sg9
g10
sg11
S'13'
p1861
sb(I124
I0
I0
tp1862
sg1
(g2
g3
Ntp1863
Rp1864
(dp1865
g7
g17
sg9
g30
sg11
g65
sb(I0
I0
I123
tp1866
sg1
(g2
g3
Ntp1867
Rp1868
(dp1869
g7
S'19'
p1870
sg9
g10
sg11
g12
sb(I0
I39
I0
tp1871
sg1
(g2
g3
Ntp1872
Rp1873
(dp1874
g7
S'19'
p1875
sg9
g10
sg11
S'28'
p1876
sb(I0
I350
I0
tp1877
sg1
(g2
g3
Ntp1878
Rp1879
(dp1880
g7
S'23'
p1881
sg9
g10
sg11
S'22'
p1882
sb(I0
I334
I0
tp1883
sg1
(g2
g3
Ntp1884
Rp1885
(dp1886
g7
g77
sg9
g30
sg11
S'12'
p1887
sb(I0
I0
I290
tp1888
sg1
(g2
g3
Ntp1889
Rp1890
(dp1891
g7
g37
sg9
g18
sg11
g71
sb(I4
I12
I1
tp1892
sg1
(g2
g3
Ntp1893
Rp1894
(dp1895
g7
g65
sg9
g25
sg11
S'10'
p1896
sb(I0
I0
I62
tp1897
sg1
(g2
g3
Ntp1898
Rp1899
(dp1900
g7
S'25'
p1901
sg9
g10
sg11
S'27'
p1902
sb(I0
I129
I0
tp1903
sg1
(g2
g3
Ntp1904
Rp1905
(dp1906
g7
g17
sg9
g10
sg11
S'21'
p1907
sb(I10
I0
I0
tp1908
sg1
(g2
g3
Ntp1909
Rp1910
(dp1911
g7
g77
sg9
g25
sg11
S'12'
p1912
sb(I0
I0
I119
tp1913
sg1
(g2
g3
Ntp1914
Rp1915
(dp1916
g7
g71
sg9
g30
sg11
S'19'
p1917
sb(I0
I0
I349
tp1918
sg1
(g2
g3
Ntp1919
Rp1920
(dp1921
g7
g65
sg9
g25
sg11
g71
sb(I0
I0
I22
tp1922
sg1
(g2
g3
Ntp1923
Rp1924
(dp1925
g7
g17
sg9
g25
sg11
S'21'
p1926
sb(I0
I0
I60
tp1927
sg1
(g2
g3
Ntp1928
Rp1929
(dp1930
g7
g17
sg9
g30
sg11
S'21'
p1931
sb(I0
I0
I363
tp1932
sg1
(g2
g3
Ntp1933
Rp1934
(dp1935
g7
g77
sg9
g18
sg11
S'12'
p1936
sb(I2
I4
I0
tp1937
sg1
(g2
g3
Ntp1938
Rp1939
(dp1940
g7
g71
sg9
g25
sg11
S'19'
p1941
sb(I0
I0
I61
tp1942
sg1
(g2
g3
Ntp1943
Rp1944
(dp1945
g7
g12
sg9
g25
sg11
S'18'
p1946
sb(I0
I0
I88
tp1947
sg1
(g2
g3
Ntp1948
Rp1949
(dp1950
g7
S'24'
p1951
sg9
g10
sg11
S'25'
p1952
sb(I1
I192
I0
tp1953
sg1
(g2
g3
Ntp1954
Rp1955
(dp1956
g7
S'24'
p1957
sg9
g10
sg11
g135
sb(I7
I0
I0
tp1958
sg1
(g2
g3
Ntp1959
Rp1960
(dp1961
g7
S'10'
p1962
sg9
g25
sg11
S'19'
p1963
sb(I0
I0
I311
tp1964
sg1
(g2
g3
Ntp1965
Rp1966
(dp1967
g7
S'20'
p1968
sg9
g10
sg11
S'23'
p1969
sb(I0
I824
I0
tp1970
sg1
(g2
g3
Ntp1971
Rp1972
(dp1973
g7
g113
sg9
g10
sg11
S'21'
p1974
sb(I6
I2
I0
tp1975
sg1
(g2
g3
Ntp1976
Rp1977
(dp1978
g7
S'17'
p1979
sg9
g10
sg11
S'16'
p1980
sb(I0
I396
I0
tp1981
sg1
(g2
g3
Ntp1982
Rp1983
(dp1984
g7
g113
sg9
g10
sg11
g37
sb(I1
I1
I0
tp1985
sg1
(g2
g3
Ntp1986
Rp1987
(dp1988
g7
S'10'
p1989
sg9
g30
sg11
S'19'
p1990
sb(I0
I0
I1475
tp1991
sg1
(g2
g3
Ntp1992
Rp1993
(dp1994
g7
g17
sg9
g18
sg11
g71
sb(I1
I7
I0
tp1995
sg1
(g2
g3
Ntp1996
Rp1997
(dp1998
g7
g77
sg9
g18
sg11
g113
sb(I2
I10
I0
tp1999
sg1
(g2
g3
Ntp2000
Rp2001
(dp2002
g7
g17
sg9
g30
sg11
S'18'
p2003
sb(I0
I0
I371
tp2004
sg1
(g2
g3
Ntp2005
Rp2006
(dp2007
g7
S'26'
p2008
sg9
g10
sg11
S'22'
p2009
sb(I0
I190
I0
tp2010
sg1
(g2
g3
Ntp2011
Rp2012
(dp2013
g7
g113
sg9
g30
sg11
g77
sb(I0
I0
I81
tp2014
sg1
(g2
g3
Ntp2015
Rp2016
(dp2017
g7
g17
sg9
g25
sg11
S'18'
p2018
sb(I0
I0
I86
tp2019
sg1
(g2
g3
Ntp2020
Rp2021
(dp2022
g7
S'26'
p2023
sg9
g10
sg11
g77
sb(I33
I0
I0
tp2024
sg1
(g2
g3
Ntp2025
Rp2026
(dp2027
g7
S'22'
p2028
sg9
g10
sg11
S'13'
p2029
sb(I189
I0
I0
tp2030
sg1
(g2
g3
Ntp2031
Rp2032
(dp2033
g7
S'10'
p2034
sg9
g10
sg11
S'19'
p2035
sb(I15
I25
I3
tp2036
sg1
(g2
g3
Ntp2037
Rp2038
(dp2039
g7
S'18'
p2040
sg9
g10
sg11
S'26'
p2041
sb(I0
I473
I0
tp2042
sg1
(g2
g3
Ntp2043
Rp2044
(dp2045
g7
S'18'
p2046
sg9
g10
sg11
S'21'
p2047
sb(I515
I0
I0
tp2048
sg1
(g2
g3
Ntp2049
Rp2050
(dp2051
g7
S'25'
p2052
sg9
g10
sg11
S'20'
p2053
sb(I204
I0
I0
tp2054
sg1
(g2
g3
Ntp2055
Rp2056
(dp2057
g7
g71
sg9
g25
sg11
S'16'
p2058
sb(I0
I0
I110
tp2059
sg1
(g2
g3
Ntp2060
Rp2061
(dp2062
g7
S'24'
p2063
sg9
g10
sg11
S'20'
p2064
sb(I247
I0
I0
tp2065
sg1
(g2
g3
Ntp2066
Rp2067
(dp2068
g7
g113
sg9
g10
sg11
S'29'
p2069
sb(I0
I6
I0
tp2070
sg1
(g2
g3
Ntp2071
Rp2072
(dp2073
g7
S'11'
p2074
sg9
g18
sg11
S'16'
p2075
sb(I0
I6
I0
tp2076
sg1
(g2
g3
Ntp2077
Rp2078
(dp2079
g7
S'23'
p2080
sg9
g10
sg11
S'14'
p2081
sb(I191
I0
I0
tp2082
sg1
(g2
g3
Ntp2083
Rp2084
(dp2085
g7
g135
sg9
g25
sg11
S'18'
p2086
sb(I0
I0
I80
tp2087
sg1
(g2
g3
Ntp2088
Rp2089
(dp2090
g7
g71
sg9
g10
sg11
S'22'
p2091
sb(I0
I11
I0
tp2092
sg1
(g2
g3
Ntp2093
Rp2094
(dp2095
g7
g71
sg9
g18
sg11
S'16'
p2096
sb(I4
I2
I0
tp2097
sg1
(g2
g3
Ntp2098
Rp2099
(dp2100
g7
g65
sg9
g10
sg11
S'24'
p2101
sb(I0
I14
I0
tp2102
sg1
(g2
g3
Ntp2103
Rp2104
(dp2105
g7
g113
sg9
g10
sg11
S'24'
p2106
sb(I0
I5
I0
tp2107
sg1
(g2
g3
Ntp2108
Rp2109
(dp2110
g7
g113
sg9
g25
sg11
g77
sb(I0
I0
I34
tp2111
sg1
(g2
g3
Ntp2112
Rp2113
(dp2114
g7
S'19'
p2115
sg9
g10
sg11
S'15'
p2116
sb(I0
I394
I0
tp2117
sg1
(g2
g3
Ntp2118
Rp2119
(dp2120
g7
S'22'
p2121
sg9
g10
sg11
S'27'
p2122
sb(I0
I231
I0
tp2123
sg1
(g2
g3
Ntp2124
Rp2125
(dp2126
g7
S'21'
p2127
sg9
g10
sg11
S'20'
p2128
sb(I0
I545
I0
tp2129
sg1
(g2
g3
Ntp2130
Rp2131
(dp2132
g7
g113
sg9
g18
sg11
g77
sb(I4
I10
I0
tp2133
sg1
(g2
g3
Ntp2134
Rp2135
(dp2136
g7
g113
sg9
g30
sg11
S'21'
p2137
sb(I0
I0
I404
tp2138
sg1
(g2
g3
Ntp2139
Rp2140
(dp2141
g7
g113
sg9
g10
sg11
g77
sbg775
sg1
(g2
g3
Ntp2142
Rp2143
(dp2144
g7
S'17'
p2145
sg9
g10
sg11
S'18'
p2146
sb(I449
I0
I0
tp2147
sg1
(g2
g3
Ntp2148
Rp2149
(dp2150
g7
g17
sg9
g30
sg11
g17
sb(I0
I0
I1
tp2151
sg1
(g2
g3
Ntp2152
Rp2153
(dp2154
g7
g135
sg9
g10
sg11
S'27'
p2155
sb(I0
I17
I0
tp2156
sg1
(g2
g3
Ntp2157
Rp2158
(dp2159
g7
S'20'
p2160
sg9
g10
sg11
g37
sb(I0
I77
I0
tp2161
sg1
(g2
g3
Ntp2162
Rp2163
(dp2164
g7
g135
sg9
g30
sg11
S'16'
p2165
sb(I0
I0
I323
tp2166
sg1
(g2
g3
Ntp2167
Rp2168
(dp2169
g7
g135
sg9
g25
sg11
S'10'
p2170
sb(I0
I0
I74
tp2171
sg1
(g2
g3
Ntp2172
Rp2173
(dp2174
g7
g71
sg9
g18
sg11
g71
sb(I4
I8
I0
tp2175
sg1
(g2
g3
Ntp2176
Rp2177
(dp2178
g7
g135
sg9
g30
sg11
S'10'
p2179
sb(I0
I0
I124
tp2180
sg1
(g2
g3
Ntp2181
Rp2182
(dp2183
g7
S'10'
p2184
sg9
g10
sg11
S'28'
p2185
sb(I0
I34
I0
tp2186
sg1
(g2
g3
Ntp2187
Rp2188
(dp2189
g7
g71
sg9
g10
sg11
g71
sbg38
sg1
(g2
g3
Ntp2190
Rp2191
(dp2192
g7
S'19'
p2193
sg9
g10
sg11
S'18'
p2194
sb(I0
I453
I0
tp2195
sg1
(g2
g3
Ntp2196
Rp2197
(dp2198
g7
S'20'
p2199
sg9
g10
sg11
g65
sb(I0
I147
I0
tp2200
sg1
(g2
g3
Ntp2201
Rp2202
(dp2203
g7
g71
sg9
g25
sg11
g71
sb(I0
I0
I14
tp2204
sg1
(g2
g3
Ntp2205
Rp2206
(dp2207
g7
g135
sg9
g10
sg11
S'16'
p2208
sb(I6
I10
I1
tp2209
sg1
(g2
g3
Ntp2210
Rp2211
(dp2212
g7
g77
sg9
g10
sg11
S'12'
p2213
sb(I0
I2
I0
tp2214
sg1
(g2
g3
Ntp2215
Rp2216
(dp2217
g7
S'10'
p2218
sg9
g10
sg11
g77
sb(I0
I2
I0
tp2219
sg1
(g2
g3
Ntp2220
Rp2221
(dp2222
g7
g71
sg9
g30
sg11
g135
sb(I0
I0
I7
tp2223
sg1
(g2
g3
Ntp2224
Rp2225
(dp2226
g7
g135
sg9
g18
sg11
S'16'
p2227
sb(I6
I12
I1
tp2228
sg1
(g2
g3
Ntp2229
Rp2230
(dp2231
g7
g71
sg9
g30
sg11
g71
sb(I0
I0
I44
tp2232
sg1
(g2
g3
Ntp2233
Rp2234
(dp2235
g7
g71
sg9
g18
sg11
g113
sb(I2
I2
I0
tp2236
sg1
(g2
g3
Ntp2237
Rp2238
(dp2239
g7
g37
sg9
g10
sg11
S'18'
p2240
sb(I6
I3
I1
tp2241
sg1
(g2
g3
Ntp2242
Rp2243
(dp2244
g7
g135
sg9
g18
sg11
g71
sb(I3
I13
I1
tp2245
sg1
(g2
g3
Ntp2246
Rp2247
(dp2248
g7
g113
sg9
g25
sg11
S'21'
p2249
sb(I0
I0
I65
tp2250
sg1
(g2
g3
Ntp2251
Rp2252
(dp2253
g7
g71
sg9
g30
sg11
S'10'
p2254
sb(I0
I0
I118
tp2255
sg1
(g2
g3
Ntp2256
Rp2257
(dp2258
g7
S'11'
p2259
sg9
g25
sg11
S'19'
p2260
sb(I0
I0
I75
tp2261
sg1
(g2
g3
Ntp2262
Rp2263
(dp2264
g7
g135
sg9
g10
sg11
g71
sbg38
sg1
(g2
g3
Ntp2265
Rp2266
(dp2267
g7
g135
sg9
g10
sg11
g65
sbg38
sg1
(g2
g3
Ntp2268
Rp2269
(dp2270
g7
g71
sg9
g10
sg11
g113
sbg775
sg1
(g2
g3
Ntp2271
Rp2272
(dp2273
g7
S'11'
p2274
sg9
g30
sg11
S'19'
p2275
sb(I0
I0
I377
tp2276
sg1
(g2
g3
Ntp2277
Rp2278
(dp2279
g7
S'18'
p2280
sg9
g10
sg11
S'11'
p2281
sb(I0
I142
I0
tp2282
sg1
(g2
g3
Ntp2283
Rp2284
(dp2285
g7
g37
sg9
g30
sg11
S'18'
p2286
sb(I0
I0
I335
tp2287
sg1
(g2
g3
Ntp2288
Rp2289
(dp2290
g7
S'11'
p2291
sg9
g10
sg11
S'19'
p2292
sb(I7
I7
I0
tp2293
sg1
(g2
g3
Ntp2294
Rp2295
(dp2296
g7
g17
sg9
g10
sg11
S'27'
p2297
sb(I0
I12
I0
tp2298
sg1
(g2
g3
Ntp2299
Rp2300
(dp2301
g7
S'22'
p2302
sg9
g10
sg11
S'26'
p2303
sb(I0
I261
I0
tp2304
sg1
(g2
g3
Ntp2305
Rp2306
(dp2307
g7
g113
sg9
g10
sg11
S'19'
p2308
sb(I7
I0
I1
tp2309
sg1
(g2
g3
Ntp2310
Rp2311
(dp2312
g7
g71
sg9
g25
sg11
g113
sb(I0
I0
I9
tp2313
sg1
(g2
g3
Ntp2314
Rp2315
(dp2316
g7
g135
sg9
g30
sg11
g71
sb(I0
I0
I43
tp2317
sg1
(g2
g3
Ntp2318
Rp2319
(dp2320
g7
g71
sg9
g10
sg11
S'19'
p2321
sb(I5
I0
I1
tp2322
sg1
(g2
g3
Ntp2323
Rp2324
(dp2325
g7
g71
sg9
g30
sg11
g113
sb(I0
I0
I8
tp2326
sg1
(g2
g3
Ntp2327
Rp2328
(dp2329
g7
g37
sg9
g25
sg11
S'18'
p2330
sb(I0
I0
I85
tp2331
sg1
(g2
g3
Ntp2332
Rp2333
(dp2334
g7
S'17'
p2335
sg9
g10
sg11
S'30'
p2336
sb(I0
I273
I0
tp2337
sg1
(g2
g3
Ntp2338
Rp2339
(dp2340
g7
g71
sg9
g18
sg11
S'10'
p2341
sb(I4
I12
I0
tp2342
sg1
(g2
g3
Ntp2343
Rp2344
(dp2345
g7
g17
sg9
g18
sg11
S'18'
p2346
sb(I0
I4
I0
tp2347
sg1
(g2
g3
Ntp2348
Rp2349
(dp2350
g7
S'10'
p2351
sg9
g25
sg11
S'18'
p2352
sb(I0
I0
I350
tp2353
sg1
(g2
g3
Ntp2354
Rp2355
(dp2356
g7
g17
sg9
g25
sg11
g113
sb(I0
I0
I12
tp2357
sg1
(g2
g3
Ntp2358
Rp2359
(dp2360
g7
g37
sg9
g18
sg11
S'12'
p2361
sb(I6
I10
I2
tp2362
sg1
(g2
g3
Ntp2363
Rp2364
(dp2365
g7
S'10'
p2366
sg9
g30
sg11
S'18'
p2367
sb(I0
I0
I1418
tp2368
sg1
(g2
g3
Ntp2369
Rp2370
(dp2371
g7
g17
sg9
g30
sg11
g113
sb(I0
I0
I12
tp2372
sg1
(g2
g3
Ntp2373
Rp2374
(dp2375
g7
g65
sg9
g30
sg11
g37
sb(I0
I0
I66
tp2376
sg1
(g2
g3
Ntp2377
Rp2378
(dp2379
g7
S'19'
p2380
sg9
g10
sg11
S'30'
p2381
sb(I0
I292
I0
tp2382
sg1
(g2
g3
Ntp2383
Rp2384
(dp2385
g7
g17
sg9
g18
sg11
g113
sb(I10
I14
I1
tp2386
sg1
(g2
g3
Ntp2387
Rp2388
(dp2389
g7
S'10'
p2390
sg9
g18
sg11
S'18'
p2391
sb(I7
I57
I0
tp2392
sg1
(g2
g3
Ntp2393
Rp2394
(dp2395
g7
S'10'
p2396
sg9
g10
sg11
S'18'
p2397
sb(I14
I12
I0
tp2398
sg1
(g2
g3
Ntp2399
Rp2400
(dp2401
g7
g17
sg9
g10
sg11
S'14'
p2402
sb(I3
I2
I0
tp2403
sg1
(g2
g3
Ntp2404
Rp2405
(dp2406
g7
g17
sg9
g10
sg11
g113
sbg775
sg1
(g2
g3
Ntp2407
Rp2408
(dp2409
g7
g12
sg9
g10
sg11
S'23'
p2410
sb(I0
I14
I0
tp2411
sg1
(g2
g3
Ntp2412
Rp2413
(dp2414
g7
S'25'
p2415
sg9
g10
sg11
g135
sb(I2
I0
I0
tp2416
sg1
(g2
g3
Ntp2417
Rp2418
(dp2419
g7
S'20'
p2420
sg9
g10
sg11
g77
sb(I0
I113
I0
tp2421
sg1
(g2
g3
Ntp2422
Rp2423
(dp2424
g7
g65
sg9
g10
sg11
S'23'
p2425
sb(I0
I14
I0
tp2426
sg1
(g2
g3
Ntp2427
Rp2428
(dp2429
g7
S'26'
p2430
sg9
g10
sg11
S'31'
p2431
sb(I0
I45
I0
tp2432
sg1
(g2
g3
Ntp2433
Rp2434
(dp2435
g7
S'24'
p2436
sg9
g10
sg11
g77
sb(I41
I0
I0
tp2437
sg1
(g2
g3
Ntp2438
Rp2439
(dp2440
g7
S'19'
p2441
sg9
g10
sg11
g37
sb(I0
I68
I0
tp2442
sg1
(g2
g3
Ntp2443
Rp2444
(dp2445
g7
S'22'
p2446
sg9
g10
sg11
S'12'
p2447
sb(I167
I0
I0
tp2448
sg1
(g2
g3
Ntp2449
Rp2450
(dp2451
g7
S'10'
p2452
sg9
g10
sg11
S'21'
p2453
sb(I35
I4
I0
tp2454
sg1
(g2
g3
Ntp2455
Rp2456
(dp2457
g7
S'26'
p2458
sg9
g10
sg11
S'27'
p2459
sb(I1
I101
I0
tp2460
sg1
(g2
g3
Ntp2461
Rp2462
(dp2463
g7
S'17'
p2464
sg9
g10
sg11
S'24'
p2465
sb(I0
I609
I0
tp2466
sg1
(g2
g3
Ntp2467
Rp2468
(dp2469
g7
S'10'
p2470
sg9
g25
sg11
S'21'
p2471
sb(I0
I0
I249
tp2472
sg1
(g2
g3
Ntp2473
Rp2474
(dp2475
g7
g71
sg9
g10
sg11
S'16'
p2476
sb(I2
I3
I0
tp2477
sg1
(g2
g3
Ntp2478
Rp2479
(dp2480
g7
S'24'
p2481
sg9
g10
sg11
S'13'
p2482
sb(I152
I0
I0
tp2483
sg1
(g2
g3
Ntp2484
Rp2485
(dp2486
g7
S'17'
p2487
sg9
g10
sg11
S'19'
p2488
sb(I488
I0
I0
tp2489
sg1
(g2
g3
Ntp2490
Rp2491
(dp2492
g7
S'18'
p2493
sg9
g10
sg11
S'29'
p2494
sb(I0
I328
I0
tp2495
sg1
(g2
g3
Ntp2496
Rp2497
(dp2498
g7
S'10'
p2499
sg9
g30
sg11
S'21'
p2500
sb(I0
I0
I1513
tp2501
sg1
(g2
g3
Ntp2502
Rp2503
(dp2504
g7
g77
sg9
g10
sg11
S'25'
p2505
sb(I0
I15
I0
tp2506
sg1
(g2
g3
Ntp2507
Rp2508
(dp2509
g7
g12
sg9
g10
sg11
S'25'
p2510
sb(I0
I10
I0
tp2511
sg1
(g2
g3
Ntp2512
Rp2513
(dp2514
g7
g17
sg9
g25
sg11
S'10'
p2515
sb(I0
I0
I55
tp2516
sg1
(g2
g3
Ntp2517
Rp2518
(dp2519
g7
S'20'
p2520
sg9
g10
sg11
S'10'
p2521
sb(I0
I174
I0
tp2522
sg1
(g2
g3
Ntp2523
Rp2524
(dp2525
g7
S'11'
p2526
sg9
g10
sg11
S'25'
p2527
sb(I0
I8
I0
tp2528
sg1
(g2
g3
Ntp2529
Rp2530
(dp2531
g7
S'23'
p2532
sg9
g10
sg11
g17
sbg775
sg1
(g2
g3
Ntp2533
Rp2534
(dp2535
g7
g77
sg9
g30
sg11
g71
sb(I0
I0
I41
tp2536
sg1
(g2
g3
Ntp2537
Rp2538
(dp2539
g7
S'26'
p2540
sg9
g10
sg11
S'14'
p2541
sb(I127
I0
I0
tp2542
sg1
(g2
g3
Ntp2543
Rp2544
(dp2545
g7
g17
sg9
g30
sg11
S'10'
p2546
sb(I0
I0
I124
tp2547
sg1
(g2
g3
Ntp2548
Rp2549
(dp2550
g7
S'25'
p2551
sg9
g10
sg11
g12
sb(I10
I0
I0
tp2552
sg1
(g2
g3
Ntp2553
Rp2554
(dp2555
g7
g113
sg9
g30
sg11
S'19'
p2556
sb(I0
I0
I319
tp2557
sg1
(g2
g3
Ntp2558
Rp2559
(dp2560
g7
g17
sg9
g18
sg11
S'10'
p2561
sb(I5
I5
I0
tp2562
sg1
(g2
g3
Ntp2563
Rp2564
(dp2565
g7
g113
sg9
g25
sg11
S'19'
p2566
sb(I0
I0
I88
tp2567
sg1
(g2
g3
Ntp2568
Rp2569
(dp2570
g7
g135
sg9
g25
sg11
S'16'
p2571
sb(I0
I0
I102
tp2572
sg1
(g2
g3
Ntp2573
Rp2574
(dp2575
g7
g77
sg9
g18
sg11
g71
sb(I4
I16
I1
tp2576
sg1
(g2
g3
Ntp2577
Rp2578
(dp2579
g7
g17
sg9
g10
sg11
S'10'
p2580
sb(I0
I2
I0
tp2581
sg1
(g2
g3
Ntp2582
Rp2583
(dp2584
g7
g12
sg9
g10
sg11
S'28'
p2585
sb(I0
I9
I0
tp2586
sg1
(g2
g3
Ntp2587
Rp2588
(dp2589
g7
S'23'
p2590
sg9
g10
sg11
S'11'
p2591
sb(I79
I0
I0
tp2592
sg1
(g2
g3
Ntp2593
Rp2594
(dp2595
g7
g37
sg9
g25
sg11
g113
sb(I0
I0
I8
tp2596
sg1
(g2
g3
Ntp2597
Rp2598
(dp2599
g7
g77
sg9
g10
sg11
S'19'
p2600
sb(I8
I5
I0
tp2601
sg1
(g2
g3
Ntp2602
Rp2603
(dp2604
g7
g37
sg9
g25
sg11
S'10'
p2605
sb(I0
I0
I48
tp2606
sg1
(g2
g3
Ntp2607
Rp2608
(dp2609
g7
g77
sg9
g25
sg11
g37
sb(I0
I0
I27
tp2610
sg1
(g2
g3
Ntp2611
Rp2612
(dp2613
g7
S'26'
p2614
sg9
g10
sg11
g135
sb(I4
I0
I0
tp2615
sg1
(g2
g3
Ntp2616
Rp2617
(dp2618
g7
g37
sg9
g30
sg11
S'10'
p2619
sb(I0
I0
I109
tp2620
sg1
(g2
g3
Ntp2621
Rp2622
(dp2623
g7
g77
sg9
g10
sg11
S'21'
p2624
sb(I12
I0
I2
tp2625
sg1
(g2
g3
Ntp2626
Rp2627
(dp2628
g7
g135
sg9
g18
sg11
g113
sb(I4
I8
I0
tp2629
sg1
(g2
g3
Ntp2630
Rp2631
(dp2632
g7
g135
sg9
g18
sg11
S'10'
p2633
sb(I2
I8
I0
tp2634
sg1
(g2
g3
Ntp2635
Rp2636
(dp2637
g7
g37
sg9
g30
sg11
g113
sb(I0
I0
I10
tp2638
sg1
(g2
g3
Ntp2639
Rp2640
(dp2641
g7
g113
sg9
g25
sg11
g71
sb(I0
I0
I22
tp2642
sg1
(g2
g3
Ntp2643
Rp2644
(dp2645
g7
g77
sg9
g30
sg11
S'19'
p2646
sb(I0
I0
I384
tp2647
sg1
(g2
g3
Ntp2648
Rp2649
(dp2650
g7
g37
sg9
g18
sg11
S'10'
p2651
sb(I4
I12
I0
tp2652
sg1
(g2
g3
Ntp2653
Rp2654
(dp2655
g7
g37
sg9
g18
sg11
g113
sb(I0
I12
I0
tp2656
sg1
(g2
g3
Ntp2657
Rp2658
(dp2659
g7
S'17'
p2660
sg9
g10
sg11
S'25'
p2661
sb(I0
I557
I0
tp2662
sg1
(g2
g3
Ntp2663
Rp2664
(dp2665
g7
S'20'
p2666
sg9
g10
sg11
S'13'
p2667
sb(I0
I484
I0
tp2668
sg1
(g2
g3
Ntp2669
Rp2670
(dp2671
g7
g37
sg9
g10
sg11
S'10'
p2672
sbg38
sg1
(g2
g3
Ntp2673
Rp2674
(dp2675
g7
g77
sg9
g30
sg11
S'21'
p2676
sb(I0
I0
I397
tp2677
sg1
(g2
g3
Ntp2678
Rp2679
(dp2680
g7
S'10'
p2681
sg9
g10
sg11
S'27'
p2682
sb(I0
I45
I0
tp2683
sg1
(g2
g3
Ntp2684
Rp2685
(dp2686
g7
g77
sg9
g25
sg11
S'19'
p2687
sb(I0
I0
I86
tp2688
sg1
(g2
g3
Ntp2689
Rp2690
(dp2691
g7
g37
sg9
g10
sg11
g113
sbg38
sg1
(g2
g3
Ntp2692
Rp2693
(dp2694
g7
g77
sg9
g25
sg11
S'16'
p2695
sb(I0
I0
I116
tp2696
sg1
(g2
g3
Ntp2697
Rp2698
(dp2699
g7
g65
sg9
g10
sg11
S'18'
p2700
sb(I3
I3
I0
tp2701
sg1
(g2
g3
Ntp2702
Rp2703
(dp2704
g7
g113
sg9
g10
sg11
S'11'
p2705
sbg38
sg1
(g2
g3
Ntp2706
Rp2707
(dp2708
g7
g113
sg9
g25
sg11
S'18'
p2709
sb(I0
I0
I81
tp2710
sg1
(g2
g3
Ntp2711
Rp2712
(dp2713
g7
S'19'
p2714
sg9
g10
sg11
S'29'
p2715
sb(I0
I295
I0
tp2716
sg1
(g2
g3
Ntp2717
Rp2718
(dp2719
g7
g113
sg9
g30
sg11
S'18'
p2720
sb(I0
I0
I356
tp2721
sg1
(g2
g3
Ntp2722
Rp2723
(dp2724
g7
g77
sg9
g30
sg11
S'16'
p2725
sb(I0
I0
I305
tp2726
sg1
(g2
g3
Ntp2727
Rp2728
(dp2729
g7
S'21'
p2730
sg9
g10
sg11
S'14'
p2731
sb(I0
I340
I0
tp2732
sg1
(g2
g3
Ntp2733
Rp2734
(dp2735
g7
g65
sg9
g30
sg11
S'18'
p2736
sb(I0
I0
I328
tp2737
sg1
(g2
g3
Ntp2738
Rp2739
(dp2740
g7
g77
sg9
g18
sg11
S'16'
p2741
sb(I5
I13
I0
tp2742
sg1
(g2
g3
Ntp2743
Rp2744
(dp2745
g7
g77
sg9
g25
sg11
S'21'
p2746
sb(I0
I0
I72
tp2747
sg1
(g2
g3
Ntp2748
Rp2749
(dp2750
g7
g12
sg9
g10
sg11
S'24'
p2751
sb(I0
I14
I0
tp2752
sg1
(g2
g3
Ntp2753
Rp2754
(dp2755
g7
g77
sg9
g10
sg11
S'16'
p2756
sb(I1
I3
I0
tp2757
sg1
(g2
g3
Ntp2758
Rp2759
(dp2760
g7
g65
sg9
g25
sg11
S'18'
p2761
sb(I0
I0
I82
tp2762
sg1
(g2
g3
Ntp2763
Rp2764
(dp2765
g7
S'18'
p2766
sg9
g10
sg11
S'18'
p2767
sb(I0
I430
I0
tp2768
sg1
(g2
g3
Ntp2769
Rp2770
(dp2771
g7
S'11'
p2772
sg9
g10
sg11
S'29'
p2773
sb(I0
I8
I0
tp2774
sg1
(g2
g3
Ntp2775
Rp2776
(dp2777
g7
S'19'
p2778
sg9
g10
sg11
S'23'
p2779
sb(I0
I621
I0
tp2780
sg1
(g2
g3
Ntp2781
Rp2782
(dp2783
g7
S'11'
p2784
sg9
g25
sg11
S'21'
p2785
sb(I0
I0
I60
tp2786
sg1
(g2
g3
Ntp2787
Rp2788
(dp2789
g7
S'21'
p2790
sg9
g10
sg11
S'13'
p2791
sb(I0
I375
I0
tp2792
sg1
(g2
g3
Ntp2793
Rp2794
(dp2795
g7
S'11'
p2796
sg9
g30
sg11
S'21'
p2797
sb(I0
I0
I338
tp2798
sg1
(g2
g3
Ntp2799
Rp2800
(dp2801
g7
g71
sg9
g10
sg11
S'26'
p2802
sb(I0
I7
I0
tp2803
sg1
(g2
g3
Ntp2804
Rp2805
(dp2806
g7
S'25'
p2807
sg9
g10
sg11
S'14'
p2808
sb(I126
I0
I0
tp2809
sg1
(g2
g3
Ntp2810
Rp2811
(dp2812
g7
S'18'
p2813
sg9
g10
sg11
S'22'
p2814
sb(I0
I713
I0
tp2815
sg1
(g2
g3
Ntp2816
Rp2817
(dp2818
g7
S'20'
p2819
sg9
g10
sg11
S'28'
p2820
sb(I0
I458
I0
tp2821
sg1
(g2
g3
Ntp2822
Rp2823
(dp2824
g7
g71
sg9
g30
sg11
g77
sb(I0
I0
I91
tp2825
sg1
(g2
g3
Ntp2826
Rp2827
(dp2828
g7
g71
sg9
g10
sg11
S'29'
p2829
sb(I0
I6
I0
tp2830
sg1
(g2
g3
Ntp2831
Rp2832
(dp2833
g7
g12
sg9
g25
sg11
g12
sb(I0
I0
I26
tp2834
sg1
(g2
g3
Ntp2835
Rp2836
(dp2837
g7
g17
sg9
g10
sg11
S'12'
p2838
sb(I1
I6
I0
tp2839
sg1
(g2
g3
Ntp2840
Rp2841
(dp2842
g7
g71
sg9
g18
sg11
g77
sb(I8
I14
I1
tp2843
sg1
(g2
g3
Ntp2844
Rp2845
(dp2846
g7
S'25'
p2847
sg9
g10
sg11
g77
sb(I28
I0
I0
tp2848
sg1
(g2
g3
Ntp2849
Rp2850
(dp2851
g7
g65
sg9
g18
sg11
S'16'
p2852
sb(I2
I12
I0
tp2853
sg1
(g2
g3
Ntp2854
Rp2855
(dp2856
g7
S'11'
p2857
sg9
g10
sg11
S'21'
p2858
sb(I5
I2
I0
tp2859
sg1
(g2
g3
Ntp2860
Rp2861
(dp2862
g7
g12
sg9
g30
sg11
g12
sb(I0
I0
I31
tp2863
sg1
(g2
g3
Ntp2864
Rp2865
(dp2866
g7
g71
sg9
g10
sg11
g77
sb(I1
I1
I0
tp2867
sg1
(g2
g3
Ntp2868
Rp2869
(dp2870
g7
S'19'
p2871
sg9
g10
sg11
S'22'
p2872
sb(I0
I685
I0
tp2873
sg1
(g2
g3
Ntp2874
Rp2875
(dp2876
g7
S'17'
p2877
sg9
g10
sg11
g65
sb(I0
I120
I0
tp2878
sg1
(g2
g3
Ntp2879
Rp2880
(dp2881
g7
g113
sg9
g25
sg11
S'16'
p2882
sb(I0
I0
I111
tp2883
sg1
(g2
g3
Ntp2884
Rp2885
(dp2886
g7
S'22'
p2887
sg9
g10
sg11
S'31'
p2888
sb(I0
I65
I0
tp2889
sg1
(g2
g3
Ntp2890
Rp2891
(dp2892
g7
S'26'
p2893
sg9
g10
sg11
g37
sb(I19
I0
I0
tp2894
sg1
(g2
g3
Ntp2895
Rp2896
(dp2897
g7
g113
sg9
g30
sg11
S'16'
p2898
sb(I0
I0
I338
tp2899
sg1
(g2
g3
Ntp2900
Rp2901
(dp2902
g7
g113
sg9
g18
sg11
S'16'
p2903
sb(I5
I7
I0
tp2904
sg1
(g2
g3
Ntp2905
Rp2906
(dp2907
g7
S'17'
p2908
sg9
g10
sg11
S'15'
p2909
sb(I1
I420
I0
tp2910
sg1
(g2
g3
Ntp2911
Rp2912
(dp2913
g7
g113
sg9
g10
sg11
S'20'
p2914
sb(I15
I2
I1
tp2915
sg1
(g2
g3
Ntp2916
Rp2917
(dp2918
g7
S'24'
p2919
sg9
g10
sg11
S'14'
p2920
sb(I160
I0
I0
tp2921
sg1
(g2
g3
Ntp2922
Rp2923
(dp2924
g7
g113
sg9
g10
sg11
S'16'
p2925
sb(I1
I4
I1
tp2926
sg1
(g2
g3
Ntp2927
Rp2928
(dp2929
g7
S'17'
p2930
sg9
g10
sg11
S'28'
p2931
sb(I1
I353
I0
tp2932
sg1
(g2
g3
Ntp2933
Rp2934
(dp2935
g7
g12
sg9
g10
sg11
S'30'
p2936
sb(I0
I7
I0
tp2937
sg1
(g2
g3
Ntp2938
Rp2939
(dp2940
g7
g65
sg9
g18
sg11
S'10'
p2941
sb(I4
I8
I0
tp2942
sg1
(g2
g3
Ntp2943
Rp2944
(dp2945
g7
S'22'
p2946
sg9
g10
sg11
g37
sb(I34
I0
I0
tp2947
sg1
(g2
g3
Ntp2948
Rp2949
(dp2950
g7
S'10'
p2951
sg9
g10
sg11
S'22'
p2952
sb(I0
I58
I0
tp2953
sg1
(g2
g3
Ntp2954
Rp2955
(dp2956
g7
g65
sg9
g10
sg11
S'11'
p2957
sb(I2
I1
I0
tp2958
sg1
(g2
g3
Ntp2959
Rp2960
(dp2961
g7
g12
sg9
g10
sg11
S'18'
p2962
sb(I4
I3
I1
tp2963
sg1
(g2
g3
Ntp2964
Rp2965
(dp2966
g7
g77
sg9
g10
sg11
S'22'
p2967
sb(I0
I21
I0
tp2968
sg1
(g2
g3
Ntp2969
Rp2970
(dp2971
g7
g135
sg9
g10
sg11
S'29'
p2972
sb(I0
I5
I0
tp2973
sg1
(g2
g3
Ntp2974
Rp2975
(dp2976
g7
g12
sg9
g18
sg11
S'18'
p2977
sb(I6
I14
I0
tp2978
sg1
(g2
g3
Ntp2979
Rp2980
(dp2981
g7
S'21'
p2982
sg9
g10
sg11
g77
sb(I0
I77
I0
tp2983
sg1
(g2
g3
Ntp2984
Rp2985
(dp2986
g7
g12
sg9
g30
sg11
S'18'
p2987
sb(I0
I0
I340
tp2988
sg1
(g2
g3
Ntp2989
Rp2990
(dp2991
g7
S'11'
p2992
sg9
g10
sg11
S'30'
p2993
sb(I0
I9
I0
tp2994
sg1
(g2
g3
Ntp2995
Rp2996
(dp2997
g7
g65
sg9
g30
sg11
S'10'
p2998
sb(I0
I0
I135
tp2999
sg1
(g2
g3
Ntp3000
Rp3001
(dp3002
g7
g17
sg9
g10
sg11
S'23'
p3003
sb(I0
I6
I0
tp3004
sg1
(g2
g3
Ntp3005
Rp3006
(dp3007
g7
g37
sg9
g10
sg11
S'28'
p3008
sb(I0
I10
I0
tp3009
sg1
(g2
g3
Ntp3010
Rp3011
(dp3012
g7
g65
sg9
g10
sg11
S'27'
p3013
sb(I0
I9
I0
tp3014
sg1
(g2
g3
Ntp3015
Rp3016
(dp3017
g7
S'10'
p3018
sg9
g25
sg11
g71
sb(I0
I0
I88
tp3019
sg1
(g2
g3
Ntp3020
Rp3021
(dp3022
g7
g37
sg9
g30
sg11
g77
sb(I0
I0
I82
tp3023
sg1
(g2
g3
Ntp3024
Rp3025
(dp3026
g7
S'22'
p3027
sg9
g10
sg11
g135
sb(I7
I0
I0
tp3028
sg1
(g2
g3
Ntp3029
Rp3030
(dp3031
g7
g135
sg9
g25
sg11
g37
sb(I0
I0
I32
tp3032
sg1
(g2
g3
Ntp3033
Rp3034
(dp3035
g7
S'25'
p3036
sg9
g10
sg11
S'19'
p3037
sb(I182
I0
I0
tp3038
sg1
(g2
g3
Ntp3039
Rp3040
(dp3041
g7
S'10'
p3042
sg9
g30
sg11
g71
sb(I0
I0
I169
tp3043
sg1
(g2
g3
Ntp3044
Rp3045
(dp3046
g7
g37
sg9
g25
sg11
g77
sb(I0
I0
I39
tp3047
sg1
(g2
g3
Ntp3048
Rp3049
(dp3050
g7
S'19'
p3051
sg9
g10
sg11
g65
sb(I0
I103
I0
tp3052
sg1
(g2
g3
Ntp3053
Rp3054
(dp3055
g7
g65
sg9
g10
sg11
S'22'
p3056
sb(I0
I17
I0
tp3057
sg1
(g2
g3
Ntp3058
Rp3059
(dp3060
g7
g37
sg9
g10
sg11
g77
sb(I0
I2
I0
tp3061
sg1
(g2
g3
Ntp3062
Rp3063
(dp3064
g7
g37
sg9
g10
sg11
S'24'
p3065
sb(I0
I30
I0
tp3066
sg1
(g2
g3
Ntp3067
Rp3068
(dp3069
g7
S'10'
p3070
sg9
g18
sg11
g71
sb(I8
I24
I1
tp3071
sg1
(g2
g3
Ntp3072
Rp3073
(dp3074
g7
g37
sg9
g10
sg11
S'30'
p3075
sb(I0
I13
I0
tp3076
sg1
(g2
g3
Ntp3077
Rp3078
(dp3079
g7
g37
sg9
g18
sg11
g77
sb(I0
I6
I0
tp3080
sg1
(g2
g3
Ntp3081
Rp3082
(dp3083
g7
S'11'
p3084
sg9
g10
sg11
S'28'
p3085
sb(I0
I9
I0
tp3086
sg1
(g2
g3
Ntp3087
Rp3088
(dp3089
g7
S'10'
p3090
sg9
g10
sg11
g71
sbg775
sg1
(g2
g3
Ntp3091
Rp3092
(dp3093
g7
S'21'
p3094
sg9
g10
sg11
S'11'
p3095
sb(I0
I155
I0
tp3096
sg1
(g2
g3
Ntp3097
Rp3098
(dp3099
g7
g71
sg9
g25
sg11
g65
sb(I0
I0
I54
tp3100
sg1
(g2
g3
Ntp3101
Rp3102
(dp3103
g7
S'20'
p3104
sg9
g10
sg11
S'27'
p3105
sb(I0
I524
I0
tp3106
sg1
(g2
g3
Ntp3107
Rp3108
(dp3109
g7
g71
sg9
g10
sg11
S'21'
p3110
sb(I6
I3
I0
tp3111
sg1
(g2
g3
Ntp3112
Rp3113
(dp3114
g7
S'25'
p3115
sg9
g10
sg11
S'31'
p3116
sb(I0
I38
I0
tp3117
sg1
(g2
g3
Ntp3118
Rp3119
(dp3120
g7
S'18'
p3121
sg9
g10
sg11
S'24'
p3122
sb(I0
I580
I0
tp3123
sg1
(g2
g3
Ntp3124
Rp3125
(dp3126
g7
g71
sg9
g25
sg11
S'21'
p3127
sb(I0
I0
I51
tp3128
sg1
(g2
g3
Ntp3129
Rp3130
(dp3131
g7
g71
sg9
g30
sg11
S'21'
p3132
sb(I0
I0
I423
tp3133
sg1
(g2
g3
Ntp3134
Rp3135
(dp3136
g7
g12
sg9
g10
sg11
S'29'
p3137
sb(I0
I10
I0
tp3138
sg1
(g2
g3
Ntp3139
Rp3140
(dp3141
g7
g71
sg9
g30
sg11
g65
sb(I0
I0
I113
tp3142
sg1
(g2
g3
Ntp3143
Rp3144
(dp3145
g7
S'18'
p3146
sg9
g10
sg11
S'23'
p3147
sb(I0
I697
I0
tp3148
sg1
(g2
g3
Ntp3149
Rp3150
(dp3151
g7
g135
sg9
g25
sg11
g71
sb(I0
I0
I28
tp3152
sg1
(g2
g3
Ntp3153
Rp3154
(dp3155
g7
g12
sg9
g25
sg11
S'16'
p3156
sb(I0
I0
I107
tp3157
sg1
(g2
g3
Ntp3158
Rp3159
(dp3160
g7
S'25'
p3161
sg9
g10
sg11
S'11'
p3162
sb(I54
I0
I0
tp3163
sg1
(g2
g3
Ntp3164
Rp3165
(dp3166
g7
S'11'
p3167
sg9
g10
sg11
S'18'
p3168
sb(I1
I3
I0
tp3169
sg1
(g2
g3
Ntp3170
Rp3171
(dp3172
g7
g65
sg9
g10
sg11
S'13'
p3173
sb(I1
I6
I0
tp3174
sg1
(g2
g3
Ntp3175
Rp3176
(dp3177
g7
g135
sg9
g18
sg11
g77
sb(I1
I9
I0
tp3178
sg1
(g2
g3
Ntp3179
Rp3180
(dp3181
g7
g12
sg9
g30
sg11
S'16'
p3182
sb(I0
I0
I314
tp3183
sg1
(g2
g3
Ntp3184
Rp3185
(dp3186
g7
S'11'
p3187
sg9
g18
sg11
S'18'
p3188
sb(I1
I15
I0
tp3189
sg1
(g2
g3
Ntp3190
Rp3191
(dp3192
g7
g135
sg9
g30
sg11
g77
sb(I0
I0
I80
tp3193
sg1
(g2
g3
Ntp3194
Rp3195
(dp3196
g7
S'11'
p3197
sg9
g30
sg11
S'18'
p3198
sb(I0
I0
I331
tp3199
sg1
(g2
g3
Ntp3200
Rp3201
(dp3202
g7
g12
sg9
g18
sg11
S'16'
p3203
sb(I6
I10
I0
tp3204
sg1
(g2
g3
Ntp3205
Rp3206
(dp3207
g7
S'11'
p3208
sg9
g25
sg11
S'18'
p3209
sb(I0
I0
I75
tp3210
sg1
(g2
g3
Ntp3211
Rp3212
(dp3213
g7
g12
sg9
g10
sg11
S'16'
p3214
sb(I8
I3
I2
tp3215
sg1
(g2
g3
Ntp3216
Rp3217
(dp3218
g7
S'21'
p3219
sg9
g10
sg11
g113
sb(I0
I22
I0
tp3220
sg1
(g2
g3
Ntp3221
Rp3222
(dp3223
g7
g135
sg9
g25
sg11
g77
sb(I0
I0
I46
tp3224
sg1
(g2
g3
Ntp3225
Rp3226
(dp3227
g7
S'21'
p3228
sg9
g10
sg11
g135
sb(I0
I11
I0
tp3229
sg1
(g2
g3
Ntp3230
Rp3231
(dp3232
g7
g65
sg9
g10
sg11
S'16'
p3233
sb(I2
I5
I2
tp3234
sg1
(g2
g3
Ntp3235
Rp3236
(dp3237
g7
g12
sg9
g25
sg11
S'10'
p3238
sb(I0
I0
I52
tp3239
sg1
(g2
g3
Ntp3240
Rp3241
(dp3242
g7
g77
sg9
g25
sg11
S'10'
p3243
sb(I0
I0
I54
tp3244
sg1
(g2
g3
Ntp3245
Rp3246
(dp3247
g7
S'21'
p3248
sg9
g10
sg11
S'19'
p3249
sb(I0
I395
I0
tp3250
sg1
(g2
g3
Ntp3251
Rp3252
(dp3253
g7
S'23'
p3254
sg9
g10
sg11
g37
sb(I24
I0
I0
tp3255
sg1
(g2
g3
Ntp3256
Rp3257
(dp3258
g7
g65
sg9
g30
sg11
S'15'
p3259
sb(I0
I0
I382
tp3260
sg1
(g2
g3
Ntp3261
Rp3262
(dp3263
g7
S'25'
p3264
sg9
g10
sg11
S'28'
p3265
sb(I0
I121
I0
tp3266
sg1
(g2
g3
Ntp3267
Rp3268
(dp3269
g7
g12
sg9
g30
sg11
S'10'
p3270
sb(I0
I0
I117
tp3271
sg1
(g2
g3
Ntp3272
Rp3273
(dp3274
g7
g77
sg9
g30
sg11
S'10'
p3275
sb(I0
I0
I118
tp3276
sg1
(g2
g3
Ntp3277
Rp3278
(dp3279
g7
g65
sg9
g30
sg11
S'16'
p3280
sb(I0
I0
I344
tp3281
sg1
(g2
g3
Ntp3282
Rp3283
(dp3284
g7
S'18'
p3285
sg9
g10
sg11
g71
sb(I0
I55
I0
tp3286
sg1
(g2
g3
Ntp3287
Rp3288
(dp3289
g7
g12
sg9
g18
sg11
S'10'
p3290
sb(I6
I8
I0
tp3291
sg1
(g2
g3
Ntp3292
Rp3293
(dp3294
g7
S'10'
p3295
sg9
g10
sg11
S'13'
p3296
sb(I1
I18
I1
tp3297
sg1
(g2
g3
Ntp3298
Rp3299
(dp3300
g7
g17
sg9
g10
sg11
S'24'
p3301
sb(I0
I14
I0
tp3302
sg1
(g2
g3
Ntp3303
Rp3304
(dp3305
g7
g65
sg9
g10
sg11
S'15'
p3306
sb(I1
I8
I0
tp3307
sg1
(g2
g3
Ntp3308
Rp3309
(dp3310
g7
g65
sg9
g25
sg11
S'16'
p3311
sb(I0
I0
I105
tp3312
sg1
(g2
g3
Ntp3313
Rp3314
(dp3315
g7
S'20'
p3316
sg9
g10
sg11
S'14'
p3317
sb(I0
I498
I0
tp3318
sg1
(g2
g3
Ntp3319
Rp3320
(dp3321
g7
g77
sg9
g10
sg11
S'10'
p3322
sbg38
sg1
(g2
g3
Ntp3323
Rp3324
(dp3325
g7
S'22'
p3326
sg9
g10
sg11
S'10'
p3327
sb(I70
I0
I0
tp3328
sg1
(g2
g3
Ntp3329
Rp3330
(dp3331
g7
S'17'
p3332
sg9
g10
sg11
S'29'
p3333
sb(I0
I283
I0
tp3334
sg1
(g2
g3
Ntp3335
Rp3336
(dp3337
g7
S'24'
p3338
sg9
g10
sg11
S'19'
p3339
sb(I161
I0
I0
tp3340
sg1
(g2
g3
Ntp3341
Rp3342
(dp3343
g7
g77
sg9
g18
sg11
S'10'
p3344
sb(I1
I5
I0
tp3345
sg1
(g2
g3
Ntp3346
Rp3347
(dp3348
g7
g77
sg9
g10
sg11
g12
sbg775
sg1
(g2
g3
Ntp3349
Rp3350
(dp3351
g7
S'10'
p3352
sg9
g30
sg11
S'15'
p3353
sb(I0
I0
I1519
tp3354
sg1
(g2
g3
Ntp3355
Rp3356
(dp3357
g7
S'23'
p3358
sg9
g10
sg11
g77
sb(I38
I0
I0
tp3359
sg1
(g2
g3
Ntp3360
Rp3361
(dp3362
g7
S'18'
p3363
sg9
g10
sg11
g65
sb(I0
I101
I0
tp3364
sg1
(g2
g3
Ntp3365
Rp3366
(dp3367
g7
S'10'
p3368
sg9
g10
sg11
S'24'
p3369
sb(I0
I51
I0
tp3370
sg1
(g2
g3
Ntp3371
Rp3372
(dp3373
g7
g135
sg9
g10
sg11
S'25'
p3374
sb(I0
I10
I0
tp3375
sg1
(g2
g3
Ntp3376
Rp3377
(dp3378
g7
S'20'
p3379
sg9
g10
sg11
S'11'
p3380
sb(I0
I203
I0
tp3381
sg1
(g2
g3
Ntp3382
Rp3383
(dp3384
g7
S'17'
p3385
sg9
g10
sg11
S'21'
p3386
sb(I506
I0
I0
tp3387
sg1
(g2
g3
Ntp3388
Rp3389
(dp3390
g7
S'10'
p3391
sg9
g25
sg11
S'15'
p3392
sb(I0
I0
I469
tp3393
sg1
(g2
g3
Ntp3394
Rp3395
(dp3396
g7
g71
sg9
g10
sg11
g65
sbg38
sg1
(g2
g3
Ntp3397
Rp3398
(dp3399
g7
g12
sg9
g10
sg11
S'17'
p3400
sb(I1
I3
I0
tp3401
sg1
(g2
g3
Ntp3402
Rp3403
(dp3404
g7
g71
sg9
g10
sg11
g12
sbg775
sg1
(g2
g3
Ntp3405
Rp3406
(dp3407
g7
S'22'
p3408
sg9
g10
sg11
S'28'
p3409
sb(I0
I194
I0
tp3410
sg1
(g2
g3
Ntp3411
Rp3412
(dp3413
g7
g77
sg9
g10
sg11
S'17'
p3414
sb(I2
I7
I0
tp3415
sg1
(g2
g3
Ntp3416
Rp3417
(dp3418
g7
S'19'
p3419
sg9
g10
sg11
S'24'
p3420
sb(I0
I532
I0
tp3421
sg1
(g2
g3
Ntp3422
Rp3423
(dp3424
g7
g65
sg9
g18
sg11
g77
sb(I3
I9
I1
tp3425
sg1
(g2
g3
Ntp3426
Rp3427
(dp3428
g7
S'21'
p3429
sg9
g10
sg11
S'31'
p3430
sb(I0
I133
I0
tp3431
sg1
(g2
g3
Ntp3432
Rp3433
(dp3434
g7
g77
sg9
g25
sg11
g71
sb(I0
I0
I28
tp3435
sg1
(g2
g3
Ntp3436
Rp3437
(dp3438
g7
g65
sg9
g30
sg11
g77
sb(I0
I0
I66
tp3439
sg1
(g2
g3
Ntp3440
Rp3441
(dp3442
g7
S'11'
p3443
sg9
g10
sg11
g77
sbg38
sg1
(g2
g3
Ntp3444
Rp3445
(dp3446
g7
g77
sg9
g25
sg11
S'17'
p3447
sb(I0
I0
I92
tp3448
sg1
(g2
g3
Ntp3449
Rp3450
(dp3451
g7
S'26'
p3452
sg9
g10
sg11
g12
sb(I7
I0
I0
tp3453
sg1
(g2
g3
Ntp3454
Rp3455
(dp3456
g7
g71
sg9
g30
sg11
g12
sb(I0
I0
I39
tp3457
sg1
(g2
g3
Ntp3458
Rp3459
(dp3460
g7
g77
sg9
g30
sg11
S'17'
p3461
sb(I0
I0
I362
tp3462
sg1
(g2
g3
Ntp3463
Rp3464
(dp3465
g7
g71
sg9
g25
sg11
g12
sb(I0
I0
I17
tp3466
sg1
(g2
g3
Ntp3467
Rp3468
(dp3469
g7
g12
sg9
g30
sg11
g17
sbg2151
sg1
(g2
g3
Ntp3470
Rp3471
(dp3472
g7
g65
sg9
g25
sg11
g77
sb(I0
I0
I44
tp3473
sg1
(g2
g3
Ntp3474
Rp3475
(dp3476
g7
S'20'
p3477
sg9
g10
sg11
S'31'
p3478
sb(I0
I162
I0
tp3479
sg1
(g2
g3
Ntp3480
Rp3481
(dp3482
g7
S'21'
p3483
sg9
g10
sg11
S'17'
p3484
sb(I0
I371
I0
tp3485
sg1
(g2
g3
Ntp3486
Rp3487
(dp3488
g7
g37
sg9
g10
sg11
S'23'
p3489
sb(I0
I17
I0
tp3490
sg1
(g2
g3
Ntp3491
Rp3492
(dp3493
g7
g113
sg9
g30
sg11
S'17'
p3494
sb(I0
I0
I361
tp3495
sg1
(g2
g3
Ntp3496
Rp3497
(dp3498
g7
g71
sg9
g10
sg11
S'28'
p3499
sb(I0
I14
I0
tp3500
sg1
(g2
g3
Ntp3501
Rp3502
(dp3503
g7
g17
sg9
g30
sg11
g77
sb(I0
I0
I75
tp3504
sg1
(g2
g3
Ntp3505
Rp3506
(dp3507
g7
S'25'
p3508
sg9
g10
sg11
g17
sbg775
sg1
(g2
g3
Ntp3509
Rp3510
(dp3511
g7
g113
sg9
g25
sg11
S'17'
p3512
sb(I0
I0
I96
tp3513
sg1
(g2
g3
Ntp3514
Rp3515
(dp3516
g7
g17
sg9
g25
sg11
g77
sb(I0
I0
I35
tp3517
sg1
(g2
g3
Ntp3518
Rp3519
(dp3520
g7
S'24'
p3521
sg9
g10
sg11
S'27'
p3522
sb(I0
I170
I0
tp3523
sg1
(g2
g3
Ntp3524
Rp3525
(dp3526
g7
g37
sg9
g10
sg11
S'16'
p3527
sb(I1
I7
I1
tp3528
sg1
(g2
g3
Ntp3529
Rp3530
(dp3531
g7
g17
sg9
g30
sg11
S'13'
p3532
sb(I0
I0
I327
tp3533
sg1
(g2
g3
Ntp3534
Rp3535
(dp3536
g7
g37
sg9
g10
sg11
S'14'
p3537
sb(I2
I3
I0
tp3538
sg1
(g2
g3
Ntp3539
Rp3540
(dp3541
g7
S'11'
p3542
sg9
g10
sg11
S'22'
p3543
sb(I0
I17
I0
tp3544
sg1
(g2
g3
Ntp3545
Rp3546
(dp3547
g7
g135
sg9
g30
sg11
S'21'
p3548
sb(I0
I0
I395
tp3549
sg1
(g2
g3
Ntp3550
Rp3551
(dp3552
g7
S'23'
p3553
sg9
g10
sg11
S'16'
p3554
sb(I194
I0
I0
tp3555
sg1
(g2
g3
Ntp3556
Rp3557
(dp3558
g7
S'11'
p3559
sg9
g30
sg11
g65
sb(I0
I0
I111
tp3560
sg1
(g2
g3
Ntp3561
Rp3562
(dp3563
g7
S'17'
p3564
sg9
g10
sg11
g135
sb(I0
I13
I0
tp3565
sg1
(g2
g3
Ntp3566
Rp3567
(dp3568
g7
g17
sg9
g18
sg11
g77
sb(I4
I12
I0
tp3569
sg1
(g2
g3
Ntp3570
Rp3571
(dp3572
g7
S'24'
p3573
sg9
g10
sg11
S'11'
p3574
sb(I75
I0
I0
tp3575
sg1
(g2
g3
Ntp3576
Rp3577
(dp3578
g7
S'10'
p3579
sg9
g18
sg11
S'12'
p3580
sb(I14
I58
I2
tp3581
sg1
(g2
g3
Ntp3582
Rp3583
(dp3584
g7
S'20'
p3585
sg9
g10
sg11
S'19'
p3586
sb(I0
I556
I0
tp3587
sg1
(g2
g3
Ntp3588
Rp3589
(dp3590
g7
S'23'
p3591
sg9
g10
sg11
S'13'
p3592
sb(I168
I0
I0
tp3593
sg1
(g2
g3
Ntp3594
Rp3595
(dp3596
g7
g65
sg9
g30
sg11
S'14'
p3597
sb(I0
I0
I343
tp3598
sg1
(g2
g3
Ntp3599
Rp3600
(dp3601
g7
g12
sg9
g30
sg11
S'15'
p3602
sb(I0
I0
I345
tp3603
sg1
(g2
g3
Ntp3604
Rp3605
(dp3606
g7
g135
sg9
g18
sg11
S'18'
p3607
sb(I3
I11
I0
tp3608
sg1
(g2
g3
Ntp3609
Rp3610
(dp3611
g7
g12
sg9
g25
sg11
S'15'
p3612
sb(I0
I0
I108
tp3613
sg1
(g2
g3
Ntp3614
Rp3615
(dp3616
g7
g71
sg9
g10
sg11
S'15'
p3617
sb(I4
I4
I0
tp3618
sg1
(g2
g3
Ntp3619
Rp3620
(dp3621
g7
S'11'
p3622
sg9
g30
sg11
g71
sb(I0
I0
I38
tp3623
sg1
(g2
g3
Ntp3624
Rp3625
(dp3626
g7
g135
sg9
g30
sg11
S'18'
p3627
sb(I0
I0
I373
tp3628
sg1
(g2
g3
Ntp3629
Rp3630
(dp3631
g7
S'10'
p3632
sg9
g25
sg11
g17
sbg2151
sg1
(g2
g3
Ntp3633
Rp3634
(dp3635
g7
S'25'
p3636
sg9
g10
sg11
g37
sb(I21
I0
I0
tp3637
sg1
(g2
g3
Ntp3638
Rp3639
(dp3640
g7
g71
sg9
g10
sg11
S'14'
p3641
sb(I1
I4
I0
tp3642
sg1
(g2
g3
Ntp3643
Rp3644
(dp3645
g7
g12
sg9
g10
sg11
S'15'
p3646
sb(I2
I3
I0
tp3647
sg1
(g2
g3
Ntp3648
Rp3649
(dp3650
g7
S'10'
p3651
sg9
g25
sg11
S'12'
p3652
sb(I0
I0
I504
tp3653
sg1
(g2
g3
Ntp3654
Rp3655
(dp3656
g7
S'19'
p3657
sg9
g10
sg11
g71
sb(I0
I46
I0
tp3658
sg1
(g2
g3
Ntp3659
Rp3660
(dp3661
g7
S'23'
p3662
sg9
g10
sg11
S'10'
p3663
sb(I74
I0
I0
tp3664
sg1
(g2
g3
Ntp3665
Rp3666
(dp3667
g7
S'10'
p3668
sg9
g30
sg11
S'12'
p3669
sb(I0
I0
I1227
tp3670
sg1
(g2
g3
Ntp3671
Rp3672
(dp3673
g7
S'11'
p3674
sg9
g25
sg11
g71
sb(I0
I0
I13
tp3675
sg1
(g2
g3
Ntp3676
Rp3677
(dp3678
g7
S'19'
p3679
sg9
g10
sg11
S'11'
p3680
sb(I0
I164
I0
tp3681
sg1
(g2
g3
Ntp3682
Rp3683
(dp3684
g7
S'10'
p3685
sg9
g30
sg11
g17
sb(I0
I0
I3
tp3686
sg1
(g2
g3
Ntp3687
Rp3688
(dp3689
g7
g65
sg9
g10
sg11
S'28'
p3690
sb(I0
I9
I0
tp3691
sg1
(g2
g3
Ntp3692
Rp3693
(dp3694
g7
g12
sg9
g18
sg11
g113
sb(I4
I14
I0
tp3695
sg1
(g2
g3
Ntp3696
Rp3697
(dp3698
g7
g135
sg9
g25
sg11
S'20'
p3699
sb(I0
I0
I178
tp3700
sg1
(g2
g3
Ntp3701
Rp3702
(dp3703
g7
g135
sg9
g30
sg11
S'17'
p3704
sb(I0
I0
I364
tp3705
sg1
(g2
g3
Ntp3706
Rp3707
(dp3708
g7
S'26'
p3709
sg9
g10
sg11
S'16'
p3710
sb(I122
I0
I0
tp3711
sg1
(g2
g3
Ntp3712
Rp3713
(dp3714
g7
g135
sg9
g30
sg11
S'20'
p3715
sb(I0
I0
I429
tp3716
sg1
(g2
g3
Ntp3717
Rp3718
(dp3719
g7
g37
sg9
g18
sg11
S'16'
p3720
sb(I5
I7
I1
tp3721
sg1
(g2
g3
Ntp3722
Rp3723
(dp3724
g7
g135
sg9
g25
sg11
S'17'
p3725
sb(I0
I0
I92
tp3726
sg1
(g2
g3
Ntp3727
Rp3728
(dp3729
g7
S'10'
p3730
sg9
g10
sg11
S'31'
p3731
sb(I0
I10
I0
tp3732
sg1
(g2
g3
Ntp3733
Rp3734
(dp3735
g7
g17
sg9
g10
sg11
g37
sbg38
sg1
(g2
g3
Ntp3736
Rp3737
(dp3738
g7
g37
sg9
g30
sg11
S'16'
p3739
sb(I0
I0
I375
tp3740
sg1
(g2
g3
Ntp3741
Rp3742
(dp3743
g7
g65
sg9
g25
sg11
S'11'
p3744
sb(I0
I0
I60
tp3745
sg1
(g2
g3
Ntp3746
Rp3747
(dp3748
g7
g135
sg9
g10
sg11
S'17'
p3749
sb(I0
I6
I0
tp3750
sg1
(g2
g3
Ntp3751
Rp3752
(dp3753
g7
g17
sg9
g10
sg11
S'11'
p3754
sb(I1
I1
I0
tp3755
sg1
(g2
g3
Ntp3756
Rp3757
(dp3758
g7
g135
sg9
g10
sg11
S'20'
p3759
sb(I6
I3
I0
tp3760
sg1
(g2
g3
Ntp3761
Rp3762
(dp3763
g7
g77
sg9
g25
sg11
g135
sb(I0
I0
I7
tp3764
sg1
(g2
g3
Ntp3765
Rp3766
(dp3767
g7
S'22'
p3768
sg9
g10
sg11
S'14'
p3769
sb(I216
I0
I0
tp3770
sg1
(g2
g3
Ntp3771
Rp3772
(dp3773
g7
S'22'
p3774
sg9
g10
sg11
S'19'
p3775
sb(I244
I0
I0
tp3776
sg1
(g2
g3
Ntp3777
Rp3778
(dp3779
g7
g37
sg9
g25
sg11
S'16'
p3780
sb(I0
I0
I108
tp3781
sg1
(g2
g3
Ntp3782
Rp3783
(dp3784
g7
S'22'
p3785
sg9
g10
sg11
g113
sb(I11
I0
I0
tp3786
sg1
(g2
g3
Ntp3787
Rp3788
(dp3789
g7
g12
sg9
g30
sg11
g113
sb(I0
I0
I10
tp3790
sg1
(g2
g3
Ntp3791
Rp3792
(dp3793
g7
g12
sg9
g30
sg11
g77
sb(I0
I0
I83
tp3794
sg1
(g2
g3
Ntp3795
Rp3796
(dp3797
g7
g37
sg9
g25
sg11
S'15'
p3798
sb(I0
I0
I105
tp3799
sg1
(g2
g3
Ntp3800
Rp3801
(dp3802
g7
g65
sg9
g30
sg11
S'21'
p3803
sb(I0
I0
I399
tp3804
sg1
(g2
g3
Ntp3805
Rp3806
(dp3807
g7
g12
sg9
g25
sg11
g77
sb(I0
I0
I46
tp3808
sg1
(g2
g3
Ntp3809
Rp3810
(dp3811
g7
g37
sg9
g30
sg11
S'15'
p3812
sb(I0
I0
I373
tp3813
sg1
(g2
g3
Ntp3814
Rp3815
(dp3816
g7
g65
sg9
g25
sg11
S'21'
p3817
sb(I0
I0
I66
tp3818
sg1
(g2
g3
Ntp3819
Rp3820
(dp3821
g7
S'18'
p3822
sg9
g10
sg11
S'15'
p3823
sb(I0
I414
I0
tp3824
sg1
(g2
g3
Ntp3825
Rp3826
(dp3827
g7
g77
sg9
g18
sg11
g77
sb(I3
I13
I0
tp3828
sg1
(g2
g3
Ntp3829
Rp3830
(dp3831
g7
g135
sg9
g30
sg11
g12
sb(I0
I0
I30
tp3832
sg1
(g2
g3
Ntp3833
Rp3834
(dp3835
g7
S'10'
p3836
sg9
g10
sg11
g17
sbg38
sg1
(g2
g3
Ntp3837
Rp3838
(dp3839
g7
g77
sg9
g30
sg11
g77
sb(I0
I0
I72
tp3840
sg1
(g2
g3
Ntp3841
Rp3842
(dp3843
g7
S'10'
p3844
sg9
g18
sg11
S'20'
p3845
sb(I206
I730
I24
tp3846
sg1
(g2
g3
Ntp3847
Rp3848
(dp3849
g7
S'25'
p3850
sg9
g10
sg11
S'10'
p3851
sb(I52
I0
I0
tp3852
sg1
(g2
g3
Ntp3853
Rp3854
(dp3855
g7
g77
sg9
g25
sg11
g77
sb(I0
I0
I36
tp3856
sg1
(g2
g3
Ntp3857
Rp3858
(dp3859
g7
S'23'
p3860
sg9
g10
sg11
S'25'
p3861
sb(I0
I249
I0
tp3862
sg1
(g2
g3
Ntp3863
Rp3864
(dp3865
g7
g135
sg9
g25
sg11
g12
sb(I0
I0
I17
tp3866
sg1
(g2
g3
Ntp3867
Rp3868
(dp3869
g7
g12
sg9
g18
sg11
g77
sb(I2
I10
I0
tp3870
sg1
(g2
g3
Ntp3871
Rp3872
(dp3873
g7
S'24'
p3874
sg9
g10
sg11
g12
sb(I18
I0
I0
tp3875
sg1
(g2
g3
Ntp3876
Rp3877
(dp3878
g7
g135
sg9
g10
sg11
S'28'
p3879
sb(I0
I5
I0
tp3880
sg1
(g2
g3
Ntp3881
Rp3882
(dp3883
g7
S'17'
p3884
sg9
g10
sg11
S'13'
p3885
sb(I0
I412
I0
tp3886
sg1
(g2
g3
Ntp3887
Rp3888
(dp3889
g7
g71
sg9
g10
sg11
S'30'
p3890
sb(I0
I13
I0
tp3891
sg1
(g2
g3
Ntp3892
Rp3893
(dp3894
g7
g65
sg9
g10
sg11
S'14'
p3895
sb(I0
I4
I0
tp3896
sg1
(g2
g3
Ntp3897
Rp3898
(dp3899
g7
S'10'
p3900
sg9
g10
sg11
g65
sb(I1
I4
I0
tp3901
sg1
(g2
g3
Ntp3902
Rp3903
(dp3904
g7
g17
sg9
g10
sg11
g12
sb(I1
I1
I0
tp3905
sg1
(g2
g3
Ntp3906
Rp3907
(dp3908
g7
S'10'
p3909
sg9
g25
sg11
g65
sb(I0
I0
I196
tp3910
sg1
(g2
g3
Ntp3911
Rp3912
(dp3913
g7
S'18'
p3914
sg9
g10
sg11
S'12'
p3915
sb(I0
I326
I0
tp3916
sg1
(g2
g3
Ntp3917
Rp3918
(dp3919
g7
g17
sg9
g25
sg11
g12
sb(I0
I0
I13
tp3920
sg1
(g2
g3
Ntp3921
Rp3922
(dp3923
g7
S'23'
p3924
sg9
g10
sg11
S'28'
p3925
sb(I0
I150
I0
tp3926
sg1
(g2
g3
Ntp3927
Rp3928
(dp3929
g7
g71
sg9
g10
sg11
S'23'
p3930
sb(I0
I12
I0
tp3931
sg1
(g2
g3
Ntp3932
Rp3933
(dp3934
g7
S'26'
p3935
sg9
g10
sg11
S'28'
p3936
sb(I0
I111
I0
tp3937
sg1
(g2
g3
Ntp3938
Rp3939
(dp3940
g7
S'10'
p3941
sg9
g30
sg11
g65
sb(I0
I0
I434
tp3942
sg1
(g2
g3
Ntp3943
Rp3944
(dp3945
g7
S'22'
p3946
sg9
g10
sg11
g12
sb(I15
I0
I0
tp3947
sg1
(g2
g3
Ntp3948
Rp3949
(dp3950
g7
g17
sg9
g30
sg11
g12
sb(I0
I0
I32
tp3951
sg1
(g2
g3
Ntp3952
Rp3953
(dp3954
g7
g71
sg9
g25
sg11
S'20'
p3955
sb(I0
I0
I184
tp3956
sg1
(g2
g3
Ntp3957
Rp3958
(dp3959
g7
g17
sg9
g25
sg11
S'16'
p3960
sb(I0
I0
I81
tp3961
sg1
(g2
g3
Ntp3962
Rp3963
(dp3964
g7
g12
sg9
g25
sg11
g113
sb(I0
I0
I8
tp3965
sg1
(g2
g3
Ntp3966
Rp3967
(dp3968
g7
g17
sg9
g18
sg11
S'12'
p3969
sb(I6
I22
I0
tp3970
sg1
(g2
g3
Ntp3971
Rp3972
(dp3973
g7
S'17'
p3974
sg9
g10
sg11
g71
sb(I0
I52
I0
tp3975
sg1
(g2
g3
Ntp3976
Rp3977
(dp3978
g7
g71
sg9
g30
sg11
S'20'
p3979
sb(I0
I0
I385
tp3980
sg1
(g2
g3
Ntp3981
Rp3982
(dp3983
g7
g17
sg9
g30
sg11
S'16'
p3984
sb(I0
I0
I346
tp3985
sg1
(g2
g3
Ntp3986
Rp3987
(dp3988
g7
S'21'
p3989
sg9
g10
sg11
g37
sb(I0
I63
I0
tp3990
sg1
(g2
g3
Ntp3991
Rp3992
(dp3993
g7
g12
sg9
g10
sg11
S'13'
p3994
sb(I1
I1
I0
tp3995
sg1
(g2
g3
Ntp3996
Rp3997
(dp3998
g7
g17
sg9
g18
sg11
S'16'
p3999
sb(I0
I10
I0
tp4000
sg1
(g2
g3
Ntp4001
Rp4002
(dp4003
g7
g71
sg9
g18
sg11
S'20'
p4004
sb(I66
I172
I4
tp4005
sg1
(g2
g3
Ntp4006
Rp4007
(dp4008
g7
S'17'
p4009
sg9
g10
sg11
S'22'
p4010
sb(I0
I749
I0
tp4011
sg1
(g2
g3
Ntp4012
Rp4013
(dp4014
g7
g12
sg9
g10
sg11
S'10'
p4015
sbg38
sg1
(g2
g3
Ntp4016
Rp4017
(dp4018
g7
g71
sg9
g10
sg11
S'20'
p4019
sb(I6
I0
I1
tp4020
sg1
(g2
g3
Ntp4021
Rp4022
(dp4023
g7
g113
sg9
g30
sg11
g71
sb(I0
I0
I52
tp4024
sg1
(g2
g3
Ntp4025
Rp4026
(dp4027
g7
S'26'
p4028
sg9
g10
sg11
S'19'
p4029
sb(I114
I0
I0
tp4030
sg1
(g2
g3
Ntp4031
Rp4032
(dp4033
g7
g71
sg9
g25
sg11
g77
sb(I0
I0
I34
tp4034
sg1
(g2
g3
Ntp4035
Rp4036
(dp4037
g7
g113
sg9
g10
sg11
S'26'
p4038
sb(I0
I10
I0
tp4039
sg1
(g2
g3
Ntp4040
Rp4041
(dp4042
g7
g113
sg9
g10
sg11
S'30'
p4043
sb(I0
I10
I0
tp4044
sg1
(g2
g3
Ntp4045
Rp4046
(dp4047
g7
g113
sg9
g18
sg11
S'10'
p4048
sb(I3
I5
I1
tp4049
sg1
(g2
g3
Ntp4050
Rp4051
(dp4052
g7
S'18'
p4053
sg9
g10
sg11
S'27'
p4054
sb(I0
I392
I0
tp4055
sg1
(g2
g3
Ntp4056
Rp4057
(dp4058
g7
S'10'
p4059
sg9
g10
sg11
S'15'
p4060
sb(I8
I20
I1
tp4061
sg1
(g2
g3
Ntp4062
Rp4063
(dp4064
g7
S'22'
p4065
sg9
g10
sg11
S'11'
p4066
sb(I81
I0
I0
tp4067
sg1
(g2
g3
Ntp4068
Rp4069
(dp4070
g7
g113
sg9
g10
sg11
S'23'
p4071
sb(I0
I10
I0
tp4072
sg1
(g2
g3
Ntp4073
Rp4074
(dp4075
g7
g135
sg9
g10
sg11
S'26'
p4076
sb(I0
I13
I0
tp4077
sg1
(g2
g3
Ntp4078
Rp4079
(dp4080
g7
g71
sg9
g25
sg11
S'15'
p4081
sb(I0
I0
I134
tp4082
sg1
(g2
g3
Ntp4083
Rp4084
(dp4085
g7
g12
sg9
g30
sg11
S'11'
p4086
sb(I0
I0
I172
tp4087
sg1
(g2
g3
Ntp4088
Rp4089
(dp4090
g7
g65
sg9
g25
sg11
S'13'
p4091
sb(I0
I0
I121
tp4092
sg1
(g2
g3
Ntp4093
Rp4094
(dp4095
g7
g65
sg9
g30
sg11
S'13'
p4096
sb(I0
I0
I363
tp4097
sg1
(g2
g3
Ntp4098
Rp4099
(dp4100
g7
g65
sg9
g10
sg11
S'25'
p4101
sb(I0
I9
I0
tp4102
sg1
(g2
g3
Ntp4103
Rp4104
(dp4105
g7
g71
sg9
g30
sg11
S'15'
p4106
sb(I0
I0
I355
tp4107
sg1
(g2
g3
Ntp4108
Rp4109
(dp4110
g7
S'17'
p4111
sg9
g10
sg11
S'23'
p4112
sb(I0
I688
I0
tp4113
sg1
(g2
g3
Ntp4114
Rp4115
(dp4116
g7
g37
sg9
g10
sg11
S'17'
p4117
sb(I4
I2
I0
tp4118
sg1
(g2
g3
Ntp4119
Rp4120
(dp4121
g7
g12
sg9
g25
sg11
S'11'
p4122
sb(I0
I0
I61
tp4123
sg1
(g2
g3
Ntp4124
Rp4125
(dp4126
g7
g77
sg9
g25
sg11
g12
sb(I0
I0
I21
tp4127
sg1
(g2
g3
Ntp4128
Rp4129
(dp4130
g7
g12
sg9
g10
sg11
S'11'
p4131
sb(I2
I1
I0
tp4132
sg1
(g2
g3
Ntp4133
Rp4134
(dp4135
g7
g37
sg9
g25
sg11
S'17'
p4136
sb(I0
I0
I96
tp4137
sg1
(g2
g3
Ntp4138
Rp4139
(dp4140
g7
S'10'
p4141
sg9
g25
sg11
S'13'
p4142
sb(I0
I0
I519
tp4143
sg1
(g2
g3
Ntp4144
Rp4145
(dp4146
g7
S'19'
p4147
sg9
g10
sg11
g135
sb(I0
I23
I0
tp4148
sg1
(g2
g3
Ntp4149
Rp4150
(dp4151
g7
S'10'
p4152
sg9
g30
sg11
S'13'
p4153
sb(I0
I0
I1408
tp4154
sg1
(g2
g3
Ntp4155
Rp4156
(dp4157
g7
g77
sg9
g30
sg11
g12
sb(I0
I0
I37
tp4158
sg1
(g2
g3
Ntp4159
Rp4160
(dp4161
g7
S'20'
p4162
sg9
g10
sg11
S'21'
p4163
sb(I593
I0
I0
tp4164
sg1
(g2
g3
Ntp4165
Rp4166
(dp4167
g7
S'26'
p4168
sg9
g10
sg11
S'17'
p4169
sb(I119
I0
I0
tp4170
sg1
(g2
g3
Ntp4171
Rp4172
(dp4173
g7
g37
sg9
g30
sg11
S'17'
p4174
sb(I0
I0
I348
tp4175
sg1
(g2
g3
Ntp4176
Rp4177
(dp4178
g7
g113
sg9
g10
sg11
S'25'
p4179
sb(I0
I9
I0
tp4180
sg1
(g2
g3
Ntp4181
Rp4182
(dp4183
g7
S'25'
p4184
sg9
g10
sg11
S'26'
p4185
sb(I0
I164
I0
tp4186
sg1
(g2
g3
Ntp4187
Rp4188
(dp4189
g7
g12
sg9
g30
sg11
S'21'
p4190
sb(I0
I0
I369
tp4191
sg1
(g2
g3
Ntp4192
Rp4193
(dp4194
g7
S'10'
p4195
sg9
g10
sg11
S'20'
p4196
sb(I37
I20
I0
tp4197
sg1
(g2
g3
Ntp4198
Rp4199
(dp4200
g7
g17
sg9
g30
sg11
S'15'
p4201
sb(I0
I0
I356
tp4202
sg1
(g2
g3
Ntp4203
Rp4204
(dp4205
g7
g71
sg9
g25
sg11
S'17'
p4206
sb(I0
I0
I115
tp4207
sg1
(g2
g3
Ntp4208
Rp4209
(dp4210
g7
g135
sg9
g10
sg11
S'31'
p4211
sb(I0
I3
I0
tp4212
sg1
(g2
g3
Ntp4213
Rp4214
(dp4215
g7
g17
sg9
g25
sg11
S'15'
p4216
sb(I0
I0
I107
tp4217
sg1
(g2
g3
Ntp4218
Rp4219
(dp4220
g7
g71
sg9
g30
sg11
S'17'
p4221
sb(I0
I0
I385
tp4222
sg1
(g2
g3
Ntp4223
Rp4224
(dp4225
g7
g113
sg9
g10
sg11
S'28'
p4226
sb(I0
I7
I0
tp4227
sg1
(g2
g3
Ntp4228
Rp4229
(dp4230
g7
g12
sg9
g25
sg11
S'21'
p4231
sb(I0
I0
I76
tp4232
sg1
(g2
g3
Ntp4233
Rp4234
(dp4235
g7
g65
sg9
g30
sg11
S'11'
p4236
sb(I0
I0
I145
tp4237
sg1
(g2
g3
Ntp4238
Rp4239
(dp4240
g7
S'22'
p4241
sg9
g10
sg11
S'30'
p4242
sb(I0
I140
I0
tp4243
sg1
(g2
g3
Ntp4244
Rp4245
(dp4246
g7
S'10'
p4247
sg9
g30
sg11
S'20'
p4248
sb(I0
I0
I1601
tp4249
sg1
(g2
g3
Ntp4250
Rp4251
(dp4252
g7
g12
sg9
g10
sg11
S'21'
p4253
sb(I9
I1
I1
tp4254
sg1
(g2
g3
Ntp4255
Rp4256
(dp4257
g7
g17
sg9
g10
sg11
S'15'
p4258
sb(I1
I5
I0
tp4259
sg1
(g2
g3
Ntp4260
Rp4261
(dp4262
g7
S'26'
p4263
sg9
g10
sg11
S'11'
p4264
sb(I41
I0
I0
tp4265
sg1
(g2
g3
Ntp4266
Rp4267
(dp4268
g7
g113
sg9
g10
sg11
S'27'
p4269
sb(I0
I12
I0
tp4270
sg1
(g2
g3
Ntp4271
Rp4272
(dp4273
g7
g71
sg9
g10
sg11
S'17'
p4274
sb(I3
I5
I0
tp4275
sg1
(g2
g3
Ntp4276
Rp4277
(dp4278
g7
S'23'
p4279
sg9
g10
sg11
S'27'
p4280
sb(I0
I200
I0
tp4281
sg1
(g2
g3
Ntp4282
Rp4283
(dp4284
g7
S'10'
p4285
sg9
g25
sg11
S'20'
p4286
sb(I0
I0
I611
tp4287
sg1
(g2
g3
Ntp4288
Rp4289
(dp4290
g7
S'21'
p4291
sg9
g10
sg11
S'26'
p4292
sb(I0
I430
I0
tp4293
sg1
(g2
g3
Ntp4294
Rp4295
(dp4296
g7
S'10'
p4297
sg9
g18
sg11
g135
sb(I15
I37
I2
tp4298
sg1
(g2
g3
Ntp4299
Rp4300
(dp4301
g7
S'22'
p4302
sg9
g10
sg11
S'16'
p4303
sb(I217
I0
I0
tp4304
sg1
(g2
g3
Ntp4305
Rp4306
(dp4307
g7
g135
sg9
g10
sg11
S'21'
p4308
sb(I8
I2
I0
tp4309
sg1
(g2
g3
Ntp4310
Rp4311
(dp4312
g7
S'23'
p4313
sg9
g10
sg11
S'19'
p4314
sb(I222
I0
I0
tp4315
sg1
(g2
g3
Ntp4316
Rp4317
(dp4318
g7
g135
sg9
g10
sg11
S'23'
p4319
sb(I0
I16
I0
tp4320
sg1
(g2
g3
Ntp4321
Rp4322
(dp4323
g7
g65
sg9
g25
sg11
g113
sb(I0
I0
I4
tp4324
sg1
(g2
g3
Ntp4325
Rp4326
(dp4327
g7
S'21'
p4328
sg9
g10
sg11
S'10'
p4329
sb(I0
I105
I0
tp4330
sg1
(g2
g3
Ntp4331
Rp4332
(dp4333
g7
S'26'
p4334
sg9
g10
sg11
S'30'
p4335
sb(I0
I78
I0
tp4336
sg1
(g2
g3
Ntp4337
Rp4338
(dp4339
g7
g77
sg9
g10
sg11
g71
sbg775
sg1
(g2
g3
Ntp4340
Rp4341
(dp4342
g7
S'10'
p4343
sg9
g30
sg11
g135
sb(I0
I0
I36
tp4344
sg1
(g2
g3
Ntp4345
Rp4346
(dp4347
g7
S'20'
p4348
sg9
g10
sg11
g12
sb(I0
I46
I0
tp4349
sg1
(g2
g3
Ntp4350
Rp4351
(dp4352
g7
S'23'
p4353
sg9
g10
sg11
S'17'
p4354
sb(I205
I0
I0
tp4355
sg1
(g2
g3
Ntp4356
Rp4357
(dp4358
g7
S'20'
p4359
sg9
g10
sg11
S'29'
p4360
sb(I0
I367
I0
tp4361
sg1
(g2
g3
Ntp4362
Rp4363
(dp4364
g7
g77
sg9
g10
sg11
S'20'
p4365
sb(I14
I2
I0
tp4366
sg1
(g2
g3
Ntp4367
Rp4368
(dp4369
g7
g77
sg9
g10
sg11
S'30'
p4370
sb(I0
I8
I0
tp4371
sg1
(g2
g3
Ntp4372
Rp4373
(dp4374
g7
g77
sg9
g18
sg11
S'20'
p4375
sb(I64
I184
I6
tp4376
sg1
(g2
g3
Ntp4377
Rp4378
(dp4379
g7
S'22'
p4380
sg9
g10
sg11
S'29'
p4381
sb(I0
I164
I0
tp4382
sg1
(g2
g3
Ntp4383
Rp4384
(dp4385
g7
S'17'
p4386
sg9
g10
sg11
S'12'
p4387
sb(I0
I367
I0
tp4388
sg1
(g2
g3
Ntp4389
Rp4390
(dp4391
g7
g77
sg9
g30
sg11
S'20'
p4392
sb(I0
I0
I451
tp4393
sg1
(g2
g3
Ntp4394
Rp4395
(dp4396
g7
g77
sg9
g25
sg11
S'20'
p4397
sb(I0
I0
I139
tp4398
sg1
(g2
g3
Ntp4399
Rp4400
(dp4401
g7
S'11'
p4402
sg9
g10
sg11
S'31'
p4403
sb(I0
I2
I0
tp4404
sg1
(g2
g3
Ntp4405
Rp4406
(dp4407
g7
g65
sg9
g30
sg11
g71
sb(I0
I0
I54
tp4408
sg1
(g2
g3
Ntp4409
Rp4410
(dp4411
g7
S'24'
p4412
sg9
g10
sg11
S'24'
p4413
sb(I0
I253
I0
tp4414
sg1
(g2
g3
Ntp4415
Rp4416
(dp4417
g7
g77
sg9
g25
sg11
S'13'
p4418
sb(I0
I0
I145
tp4419
sg1
(g2
g3
Ntp4420
Rp4421
(dp4422
g7
g65
sg9
g30
sg11
g12
sb(I0
I0
I38
tp4423
sg1
(g2
g3
Ntp4424
Rp4425
(dp4426
g7
S'26'
p4427
sg9
g10
sg11
g113
sb(I5
I0
I0
tp4428
sg1
(g2
g3
Ntp4429
Rp4430
(dp4431
g7
S'20'
p4432
sg9
g10
sg11
S'16'
p4433
sb(I0
I553
I0
tp4434
sg1
(g2
g3
Ntp4435
Rp4436
(dp4437
g7
g65
sg9
g25
sg11
S'20'
p4438
sb(I0
I0
I159
tp4439
sg1
(g2
g3
Ntp4440
Rp4441
(dp4442
g7
g113
sg9
g18
sg11
S'20'
p4443
sb(I61
I143
I4
tp4444
sg1
(g2
g3
Ntp4445
Rp4446
(dp4447
g7
S'24'
p4448
sg9
g10
sg11
S'28'
p4449
sb(I0
I145
I0
tp4450
sg1
(g2
g3
Ntp4451
Rp4452
(dp4453
g7
g65
sg9
g30
sg11
S'20'
p4454
sb(I0
I0
I411
tp4455
sg1
(g2
g3
Ntp4456
Rp4457
(dp4458
g7
S'11'
p4459
sg9
g30
sg11
S'10'
p4460
sb(I0
I0
I113
tp4461
sg1
(g2
g3
Ntp4462
Rp4463
(dp4464
g7
g65
sg9
g25
sg11
g12
sb(I0
I0
I23
tp4465
sg1
(g2
g3
Ntp4466
Rp4467
(dp4468
g7
g65
sg9
g18
sg11
S'20'
p4469
sb(I56
I184
I5
tp4470
sg1
(g2
g3
Ntp4471
Rp4472
(dp4473
g7
g113
sg9
g30
sg11
S'20'
p4474
sb(I0
I0
I397
tp4475
sg1
(g2
g3
Ntp4476
Rp4477
(dp4478
g7
g65
sg9
g10
sg11
S'10'
p4479
sbg38
sg1
(g2
g3
Ntp4480
Rp4481
(dp4482
g7
S'21'
p4483
sg9
g10
sg11
S'25'
p4484
sb(I0
I474
I0
tp4485
sg1
(g2
g3
Ntp4486
Rp4487
(dp4488
g7
S'11'
p4489
sg9
g18
sg11
S'10'
p4490
sb(I3
I17
I0
tp4491
sg1
(g2
g3
Ntp4492
Rp4493
(dp4494
g7
g113
sg9
g30
sg11
g12
sb(I0
I0
I29
tp4495
sg1
(g2
g3
Ntp4496
Rp4497
(dp4498
g7
S'20'
p4499
sg9
g10
sg11
g71
sb(I0
I68
I0
tp4500
sg1
(g2
g3
Ntp4501
Rp4502
(dp4503
g7
g65
sg9
g10
sg11
S'20'
p4504
sb(I13
I1
I0
tp4505
sg1
(g2
g3
Ntp4506
Rp4507
(dp4508
g7
g77
sg9
g10
sg11
S'13'
p4509
sb(I1
I4
I1
tp4510
sg1
(g2
g3
Ntp4511
Rp4512
(dp4513
g7
g113
sg9
g25
sg11
S'20'
p4514
sb(I0
I0
I176
tp4515
sg1
(g2
g3
Ntp4516
Rp4517
(dp4518
g7
S'10'
p4519
sg9
g25
sg11
g135
sb(I0
I0
I41
tp4520
sg1
(g2
g3
Ntp4521
Rp4522
(dp4523
g7
S'21'
p4524
sg9
g10
sg11
g12
sb(I0
I39
I0
tp4525
sg1
(g2
g3
Ntp4526
Rp4527
(dp4528
g7
S'11'
p4529
sg9
g25
sg11
S'20'
p4530
sb(I0
I0
I143
tp4531
sg1
(g2
g3
Ntp4532
Rp4533
(dp4534
g7
g135
sg9
g25
sg11
S'15'
p4535
sb(I0
I0
I119
tp4536
sg1
(g2
g3
Ntp4537
Rp4538
(dp4539
g7
g135
sg9
g30
sg11
S'15'
p4540
sb(I0
I0
I370
tp4541
sg1
(g2
g3
Ntp4542
Rp4543
(dp4544
g7
S'20'
p4545
sg9
g10
sg11
S'18'
p4546
sb(I0
I586
I0
tp4547
sg1
(g2
g3
Ntp4548
Rp4549
(dp4550
g7
g17
sg9
g10
sg11
S'17'
p4551
sb(I2
I2
I0
tp4552
sg1
(g2
g3
Ntp4553
Rp4554
(dp4555
g7
S'23'
p4556
sg9
g10
sg11
S'31'
p4557
sb(I0
I68
I0
tp4558
sg1
(g2
g3
Ntp4559
Rp4560
(dp4561
g7
S'23'
p4562
sg9
g10
sg11
S'15'
p4563
sb(I183
I0
I0
tp4564
sg1
(g2
g3
Ntp4565
Rp4566
(dp4567
g7
S'11'
p4568
sg9
g30
sg11
S'20'
p4569
sb(I0
I0
I356
tp4570
sg1
(g2
g3
Ntp4571
Rp4572
(dp4573
g7
S'11'
p4574
sg9
g18
sg11
S'20'
p4575
sb(I35
I201
I0
tp4576
sg1
(g2
g3
Ntp4577
Rp4578
(dp4579
g7
g17
sg9
g25
sg11
S'17'
p4580
sb(I0
I0
I106
tp4581
sg1
(g2
g3
Ntp4582
Rp4583
(dp4584
g7
g135
sg9
g10
sg11
S'15'
p4585
sb(I2
I8
I0
tp4586
sg1
(g2
g3
Ntp4587
Rp4588
(dp4589
g7
g17
sg9
g30
sg11
S'17'
p4590
sb(I0
I0
I343
tp4591
sg1
(g2
g3
Ntp4592
Rp4593
(dp4594
g7
g77
sg9
g10
sg11
S'23'
p4595
sb(I0
I14
I0
tp4596
sg1
(g2
g3
Ntp4597
Rp4598
(dp4599
g7
S'11'
p4600
sg9
g10
sg11
S'20'
p4601
sb(I7
I5
I1
tp4602
sg1
(g2
g3
Ntp4603
Rp4604
(dp4605
g7
g77
sg9
g10
sg11
S'28'
p4606
sb(I0
I10
I0
tp4607
sg1
(g2
g3
Ntp4608
Rp4609
(dp4610
g7
S'24'
p4611
sg9
g10
sg11
S'29'
p4612
sb(I0
I118
I0
tp4613
sg1
(g2
g3
Ntp4614
Rp4615
(dp4616
g7
S'11'
p4617
sg9
g18
sg11
g135
sb(I0
I4
I0
tp4618
sg1
(g2
g3
Ntp4619
Rp4620
(dp4621
g7
S'18'
p4622
sg9
g10
sg11
S'20'
p4623
sb(I631
I0
I0
tp4624
sg1
(g2
g3
Ntp4625
Rp4626
(dp4627
g7
g12
sg9
g30
sg11
S'13'
p4628
sb(I0
I0
I384
tp4629
sg1
(g2
g3
Ntp4630
Rp4631
(dp4632
g7
g135
sg9
g10
sg11
S'24'
p4633
sb(I0
I8
I0
tp4634
sg1
(g2
g3
Ntp4635
Rp4636
(dp4637
g7
S'11'
p4638
sg9
g25
sg11
g135
sb(I0
I0
I5
tp4639
sg1
(g2
g3
Ntp4640
Rp4641
(dp4642
g7
g17
sg9
g10
sg11
g71
sbg38
sg1
(g2
g3
Ntp4643
Rp4644
(dp4645
g7
S'19'
p4646
sg9
g10
sg11
S'10'
p4647
sb(I0
I115
I0
tp4648
sg1
(g2
g3
Ntp4649
Rp4650
(dp4651
g7
S'25'
p4652
sg9
g10
sg11
S'25'
p4653
sb(I1
I199
I0
tp4654
sg1
(g2
g3
Ntp4655
Rp4656
(dp4657
g7
S'24'
p4658
sg9
g10
sg11
S'21'
p4659
sb(I189
I0
I0
tp4660
sg1
(g2
g3
Ntp4661
Rp4662
(dp4663
g7
S'22'
p4664
sg9
g10
sg11
S'17'
p4665
sb(I216
I0
I0
tp4666
sg1
(g2
g3
Ntp4667
Rp4668
(dp4669
g7
S'11'
p4670
sg9
g30
sg11
g135
sb(I0
I0
I8
tp4671
sg1
(g2
g3
Ntp4672
Rp4673
(dp4674
g7
g77
sg9
g10
sg11
S'14'
p4675
sb(I2
I3
I0
tp4676
sg1
(g2
g3
Ntp4677
Rp4678
(dp4679
g7
S'20'
p4680
sg9
g10
sg11
S'25'
p4681
sb(I0
I715
I0
tp4682
sg1
(g2
g3
Ntp4683
Rp4684
(dp4685
g7
g37
sg9
g25
sg11
S'13'
p4686
sb(I0
I0
I120
tp4687
sg1
(g2
g3
Ntp4688
Rp4689
(dp4690
g7
g135
sg9
g25
sg11
S'13'
p4691
sb(I0
I0
I134
tp4692
sg1
(g2
g3
Ntp4693
Rp4694
(dp4695
g7
g135
sg9
g18
sg11
g135
sb(I6
I14
I0
tp4696
sg1
(g2
g3
Ntp4697
Rp4698
(dp4699
g7
g65
sg9
g30
sg11
g65
sb(I0
I0
I117
tp4700
sg1
(g2
g3
Ntp4701
Rp4702
(dp4703
g7
g65
sg9
g10
sg11
S'12'
p4704
sb(I2
I4
I0
tp4705
sg1
(g2
g3
Ntp4706
Rp4707
(dp4708
g7
g135
sg9
g25
sg11
g135
sb(I0
I0
I6
tp4709
sg1
(g2
g3
Ntp4710
Rp4711
(dp4712
g7
g135
sg9
g10
sg11
S'30'
p4713
sb(I0
I11
I0
tp4714
sg1
(g2
g3
Ntp4715
Rp4716
(dp4717
g7
g37
sg9
g10
sg11
S'12'
p4718
sb(I0
I3
I0
tp4719
sg1
(g2
g3
Ntp4720
Rp4721
(dp4722
g7
g135
sg9
g30
sg11
S'13'
p4723
sb(I0
I0
I354
tp4724
sg1
(g2
g3
Ntp4725
Rp4726
(dp4727
g7
g12
sg9
g10
sg11
g65
sbg775
sg1
(g2
g3
Ntp4728
Rp4729
(dp4730
g7
g71
sg9
g18
sg11
g135
sb(I4
I12
I0
tp4731
sg1
(g2
g3
Ntp4732
Rp4733
(dp4734
g7
g17
sg9
g25
sg11
S'11'
p4735
sb(I0
I0
I63
tp4736
sg1
(g2
g3
Ntp4737
Rp4738
(dp4739
g7
g12
sg9
g30
sg11
S'20'
p4740
sb(I0
I0
I415
tp4741
sg1
(g2
g3
Ntp4742
Rp4743
(dp4744
g7
g17
sg9
g30
sg11
S'11'
p4745
sb(I0
I0
I149
tp4746
sg1
(g2
g3
Ntp4747
Rp4748
(dp4749
g7
g12
sg9
g25
sg11
S'20'
p4750
sb(I0
I0
I149
tp4751
sg1
(g2
g3
Ntp4752
Rp4753
(dp4754
g7
S'11'
p4755
sg9
g30
sg11
S'12'
p4756
sb(I0
I0
I275
tp4757
sg1
(g2
g3
Ntp4758
Rp4759
(dp4760
g7
g12
sg9
g30
sg11
g65
sb(I0
I0
I115
tp4761
sg1
(g2
g3
Ntp4762
Rp4763
(dp4764
g7
g77
sg9
g25
sg11
g113
sb(I0
I0
I8
tp4765
sg1
(g2
g3
Ntp4766
Rp4767
(dp4768
g7
g71
sg9
g25
sg11
g135
sb(I0
I0
I10
tp4769
sg1
(g2
g3
Ntp4770
Rp4771
(dp4772
g7
g12
sg9
g10
sg11
S'20'
p4773
sb(I2
I7
I0
tp4774
sg1
(g2
g3
Ntp4775
Rp4776
(dp4777
g7
S'26'
p4778
sg9
g10
sg11
S'21'
p4779
sb(I151
I0
I0
tp4780
sg1
(g2
g3
Ntp4781
Rp4782
(dp4783
g7
S'24'
p4784
sg9
g10
sg11
S'17'
p4785
sb(I179
I0
I0
tp4786
sg1
(g2
g3
Ntp4787
Rp4788
(dp4789
g7
S'21'
p4790
sg9
g10
sg11
g71
sb(I0
I44
I0
tp4791
sg1
(g2
g3
Ntp4792
Rp4793
(dp4794
g7
g12
sg9
g18
sg11
S'20'
p4795
sb(I61
I153
I8
tp4796
sg1
(g2
g3
Ntp4797
Rp4798
(dp4799
g7
g12
sg9
g25
sg11
g65
sb(I0
I0
I46
tp4800
sg1
(g2
g3
Ntp4801
Rp4802
(dp4803
g7
S'21'
p4804
sg9
g10
sg11
S'16'
p4805
sb(I0
I338
I0
tp4806
sg1
(g2
g3
Ntp4807
Rp4808
(dp4809
g7
g113
sg9
g10
sg11
S'13'
p4810
sb(I2
I6
I0
tp4811
sg1
(g2
g3
Ntp4812
Rp4813
(dp4814
g7
g71
sg9
g10
sg11
S'13'
p4815
sb(I3
I3
I0
tp4816
sg1
(g2
g3
Ntp4817
Rp4818
(dp4819
g7
S'20'
p4820
sg9
g10
sg11
g113
sb(I0
I37
I0
tp4821
sg1
(g2
g3
Ntp4822
Rp4823
(dp4824
g7
S'24'
p4825
sg9
g10
sg11
S'18'
p4826
sb(I179
I0
I0
tp4827
sg1
(g2
g3
Ntp4828
Rp4829
(dp4830
g7
S'20'
p4831
sg9
g10
sg11
S'30'
p4832
sb(I0
I367
I0
tp4833
sg1
(g2
g3
Ntp4834
Rp4835
(dp4836
g7
g113
sg9
g30
sg11
S'13'
p4837
sb(I0
I0
I344
tp4838
sg1
(g2
g3
Ntp4839
Rp4840
(dp4841
g7
S'19'
p4842
sg9
g10
sg11
S'14'
p4843
sb(I0
I382
I0
tp4844
sg1
(g2
g3
Ntp4845
Rp4846
(dp4847
g7
S'21'
p4848
sg9
g10
sg11
S'28'
p4849
sb(I0
I286
I0
tp4850
sg1
(g2
g3
Ntp4851
Rp4852
(dp4853
g7
g77
sg9
g10
sg11
S'15'
p4854
sb(I1
I1
I0
tp4855
sg1
(g2
g3
Ntp4856
Rp4857
(dp4858
g7
S'20'
p4859
sg9
g10
sg11
S'24'
p4860
sb(I0
I730
I0
tp4861
sg1
(g2
g3
Ntp4862
Rp4863
(dp4864
g7
g113
sg9
g25
sg11
S'13'
p4865
sb(I0
I0
I134
tp4866
sg1
(g2
g3
Ntp4867
Rp4868
(dp4869
g7
S'24'
p4870
sg9
g10
sg11
S'10'
p4871
sb(I68
I0
I0
tp4872
sg1
(g2
g3
Ntp4873
Rp4874
(dp4875
g7
S'19'
p4876
sg9
g10
sg11
S'20'
p4877
sb(I549
I0
I0
tp4878
sg1
(g2
g3
Ntp4879
Rp4880
(dp4881
g7
g37
sg9
g25
sg11
g12
sb(I0
I0
I20
tp4882
sg1
(g2
g3
Ntp4883
Rp4884
(dp4885
g7
g135
sg9
g10
sg11
S'22'
p4886
sb(I0
I8
I0
tp4887
sg1
(g2
g3
Ntp4888
Rp4889
(dp4890
g7
S'17'
p4891
sg9
g10
sg11
g77
sb(I0
I89
I0
tp4892
sg1
(g2
g3
Ntp4893
Rp4894
(dp4895
g7
S'25'
p4896
sg9
g10
sg11
g113
sb(I10
I0
I0
tp4897
sg1
(g2
g3
Ntp4898
Rp4899
(dp4900
g7
S'24'
p4901
sg9
g10
sg11
S'16'
p4902
sb(I180
I0
I0
tp4903
sg1
(g2
g3
Ntp4904
Rp4905
(dp4906
g7
S'10'
p4907
sg9
g10
sg11
g37
sb(I0
I2
I1
tp4908
sg1
(g2
g3
Ntp4909
Rp4910
(dp4911
g7
g135
sg9
g10
sg11
S'14'
p4912
sb(I2
I6
I0
tp4913
sg1
(g2
g3
Ntp4914
Rp4915
(dp4916
g7
g17
sg9
g25
sg11
g37
sb(I0
I0
I38
tp4917
sg1
(g2
g3
Ntp4918
Rp4919
(dp4920
g7
g17
sg9
g30
sg11
g37
sb(I0
I0
I79
tp4921
sg1
(g2
g3
Ntp4922
Rp4923
(dp4924
g7
g135
sg9
g10
sg11
S'12'
p4925
sb(I0
I3
I0
tp4926
sg1
(g2
g3
Ntp4927
Rp4928
(dp4929
g7
g71
sg9
g10
sg11
S'27'
p4930
sb(I0
I15
I0
tp4931
sg1
(g2
g3
Ntp4932
Rp4933
(dp4934
g7
g135
sg9
g18
sg11
S'14'
p4935
sb(I3
I23
I0
tp4936
sg1
(g2
g3
Ntp4937
Rp4938
(dp4939
g7
g37
sg9
g30
sg11
g37
sb(I0
I0
I77
tp4940
sg1
(g2
g3
Ntp4941
Rp4942
(dp4943
g7
g17
sg9
g25
sg11
S'13'
p4944
sb(I0
I0
I127
tp4945
sg1
(g2
g3
Ntp4946
Rp4947
(dp4948
g7
S'17'
p4949
sg9
g10
sg11
S'20'
p4950
sb(I590
I0
I0
tp4951
sg1
(g2
g3
Ntp4952
Rp4953
(dp4954
g7
g135
sg9
g30
sg11
S'14'
p4955
sb(I0
I0
I322
tp4956
sg1
(g2
g3
Ntp4957
Rp4958
(dp4959
g7
g17
sg9
g10
sg11
S'16'
p4960
sb(I5
I7
I0
tp4961
sg1
(g2
g3
Ntp4962
Rp4963
(dp4964
g7
S'26'
p4965
sg9
g10
sg11
S'24'
p4966
sb(I0
I159
I0
tp4967
sg1
(g2
g3
Ntp4968
Rp4969
(dp4970
g7
g135
sg9
g25
sg11
S'14'
p4971
sb(I0
I0
I141
tp4972
sg1
(g2
g3
Ntp4973
Rp4974
(dp4975
g7
g17
sg9
g10
sg11
S'30'
p4976
sb(I0
I9
I0
tp4977
sg1
(g2
g3
Ntp4978
Rp4979
(dp4980
g7
g37
sg9
g10
sg11
S'27'
p4981
sb(I0
I11
I0
tp4982
sg1
(g2
g3
Ntp4983
Rp4984
(dp4985
g7
S'26'
p4986
sg9
g10
sg11
S'29'
p4987
sb(I0
I90
I0
tp4988
sg1
(g2
g3
Ntp4989
Rp4990
(dp4991
g7
g135
sg9
g25
sg11
S'11'
p4992
sb(I0
I0
I76
tp4993
sg1
(g2
g3
Ntp4994
Rp4995
(dp4996
g7
S'10'
p4997
sg9
g30
sg11
g37
sb(I0
I0
I266
tp4998
sg1
(g2
g3
Ntp4999
Rp5000
(dp5001
g7
g65
sg9
g10
sg11
S'17'
p5002
sb(I1
I3
I2
tp5003
sg1
(g2
g3
Ntp5004
Rp5005
(dp5006
g7
S'11'
p5007
sg9
g10
sg11
S'26'
p5008
sb(I0
I13
I0
tp5009
sg1
(g2
g3
Ntp5010
Rp5011
(dp5012
g7
g77
sg9
g30
sg11
g113
sb(I0
I0
I10
tp5013
sg1
(g2
g3
Ntp5014
Rp5015
(dp5016
g7
g135
sg9
g30
sg11
S'11'
p5017
sb(I0
I0
I159
tp5018
sg1
(g2
g3
Ntp5019
Rp5020
(dp5021
g7
S'11'
p5022
sg9
g25
sg11
S'12'
p5023
sb(I0
I0
I143
tp5024
sg1
(g2
g3
Ntp5025
Rp5026
(dp5027
g7
S'10'
p5028
sg9
g25
sg11
g37
sb(I0
I0
I137
tp5029
sg1
(g2
g3
Ntp5030
Rp5031
(dp5032
g7
S'24'
p5033
sg9
g10
sg11
g71
sb(I28
I0
I0
tp5034
sg1
(g2
g3
Ntp5035
Rp5036
(dp5037
g7
g65
sg9
g18
sg11
S'18'
p5038
sb(I4
I12
I1
tp5039
sg1
(g2
g3
Ntp5040
Rp5041
(dp5042
g7
S'11'
p5043
sg9
g10
sg11
g65
sb(I0
I2
I0
tp5044
sg1
(g2
g3
Ntp5045
Rp5046
(dp5047
g7
S'11'
p5048
sg9
g18
sg11
S'14'
p5049
sb(I3
I5
I0
tp5050
sg1
(g2
g3
Ntp5051
Rp5052
(dp5053
g7
g65
sg9
g30
sg11
S'17'
p5054
sb(I0
I0
I349
tp5055
sg1
(g2
g3
Ntp5056
Rp5057
(dp5058
g7
S'17'
p5059
sg9
g10
sg11
S'10'
p5060
sb(I0
I138
I0
tp5061
sg1
(g2
g3
Ntp5062
Rp5063
(dp5064
g7
g65
sg9
g25
sg11
S'17'
p5065
sb(I0
I0
I103
tp5066
sg1
(g2
g3
Ntp5067
Rp5068
(dp5069
g7
S'22'
p5070
sg9
g10
sg11
g71
sb(I24
I0
I0
tp5071
sg1
(g2
g3
Ntp5072
Rp5073
(dp5074
g7
g12
sg9
g30
sg11
S'17'
p5075
sb(I0
I0
I356
tp5076
sg1
(g2
g3
Ntp5077
Rp5078
(dp5079
g7
S'11'
p5080
sg9
g10
sg11
S'23'
p5081
sb(I0
I11
I0
tp5082
sg1
(g2
g3
Ntp5083
Rp5084
(dp5085
g7
g37
sg9
g30
sg11
S'11'
p5086
sb(I0
I0
I159
tp5087
sg1
(g2
g3
Ntp5088
Rp5089
(dp5090
g7
S'25'
p5091
sg9
g10
sg11
S'15'
p5092
sb(I132
I0
I0
tp5093
sg1
(g2
g3
Ntp5094
Rp5095
(dp5096
g7
g37
sg9
g25
sg11
S'11'
p5097
sb(I0
I0
I65
tp5098
sg1
(g2
g3
Ntp5099
Rp5100
(dp5101
g7
S'21'
p5102
sg9
g10
sg11
S'30'
p5103
sb(I0
I220
I0
tp5104
sg1
(g2
g3
Ntp5105
Rp5106
(dp5107
g7
g135
sg9
g30
sg11
g113
sb(I0
I0
I14
tp5108
sg1
(g2
g3
Ntp5109
Rp5110
(dp5111
g7
g12
sg9
g25
sg11
S'17'
p5112
sb(I0
I0
I106
tp5113
sg1
(g2
g3
Ntp5114
Rp5115
(dp5116
g7
g12
sg9
g18
sg11
g71
sb(I7
I1
I0
tp5117
sg1
(g2
g3
Ntp5118
Rp5119
(dp5120
g7
S'24'
p5121
sg9
g10
sg11
g37
sb(I29
I0
I0
tp5122
sg1
(g2
g3
Ntp5123
Rp5124
(dp5125
g7
g113
sg9
g18
sg11
g71
sb(I2
I8
I0
tp5126
sg1
(g2
g3
Ntp5127
Rp5128
(dp5129
g7
S'23'
p5130
sg9
g10
sg11
S'26'
p5131
sb(I0
I209
I0
tp5132
sg1
(g2
g3
Ntp5133
Rp5134
(dp5135
g7
g37
sg9
g10
sg11
S'11'
p5136
sb(I0
I2
I1
tp5137
sg1
(g2
g3
Ntp5138
Rp5139
(dp5140
g7
S'17'
p5141
sg9
g10
sg11
S'27'
p5142
sb(I0
I376
I0
tp5143
sg1
(g2
g3
Ntp5144
Rp5145
(dp5146
g7
g77
sg9
g30
sg11
S'15'
p5147
sb(I0
I0
I363
tp5148
sg1
(g2
g3
Ntp5149
Rp5150
(dp5151
g7
S'11'
p5152
sg9
g10
sg11
S'14'
p5153
sb(I1
I6
I0
tp5154
sg1
(g2
g3
Ntp5155
Rp5156
(dp5157
g7
g12
sg9
g10
sg11
S'31'
p5158
sbg38
sg1
(g2
g3
Ntp5159
Rp5160
(dp5161
g7
g77
sg9
g25
sg11
S'15'
p5162
sb(I0
I0
I111
tp5163
sg1
(g2
g3
Ntp5164
Rp5165
(dp5166
g7
S'22'
p5167
sg9
g10
sg11
S'21'
p5168
sb(I257
I0
I0
tp5169
sg1
(g2
g3
Ntp5170
Rp5171
(dp5172
g7
S'24'
p5173
sg9
g10
sg11
S'31'
p5174
sb(I0
I60
I0
tp5175
sg1
(g2
g3
Ntp5176
Rp5177
(dp5178
g7
S'26'
p5179
sg9
g10
sg11
S'26'
p5180
sb(I0
I155
I0
tp5181
sg1
(g2
g3
Ntp5182
Rp5183
(dp5184
g7
g113
sg9
g30
sg11
g135
sb(I0
I0
I7
tp5185
sg1
(g2
g3
Ntp5186
Rp5187
(dp5188
g7
g37
sg9
g25
sg11
g37
sb(I0
I0
I36
tp5189
sg1
(g2
g3
Ntp5190
Rp5191
(dp5192
g7
g71
sg9
g18
sg11
S'14'
p5193
sb(I6
I6
I0
tp5194
sg1
(g2
g3
Ntp5195
Rp5196
(dp5197
g7
g135
sg9
g25
sg11
g113
sb(I0
I0
I6
tp5198
sg1
(g2
g3
Ntp5199
Rp5200
(dp5201
g7
S'11'
p5202
sg9
g25
sg11
S'14'
p5203
sb(I0
I0
I108
tp5204
sg1
(g2
g3
Ntp5205
Rp5206
(dp5207
g7
S'11'
p5208
sg9
g18
sg11
S'12'
p5209
sb(I3
I11
I1
tp5210
sg1
(g2
g3
Ntp5211
Rp5212
(dp5213
g7
S'11'
p5214
sg9
g30
sg11
S'14'
p5215
sb(I0
I0
I352
tp5216
sg1
(g2
g3
Ntp5217
Rp5218
(dp5219
g7
S'21'
p5220
sg9
g10
sg11
S'15'
p5221
sb(I0
I342
I0
tp5222
sg1
(g2
g3
Ntp5223
Rp5224
(dp5225
g7
S'18'
p5226
sg9
g10
sg11
S'17'
p5227
sb(I0
I431
I0
tp5228
sg1
(g2
g3
Ntp5229
Rp5230
(dp5231
g7
S'11'
p5232
sg9
g10
sg11
S'12'
p5233
sb(I0
I6
I0
tp5234
sg1
(g2
g3
Ntp5235
Rp5236
(dp5237
g7
S'26'
p5238
sg9
g10
sg11
g71
sb(I16
I0
I0
tp5239
sg1
(g2
g3
Ntp5240
Rp5241
(dp5242
g7
g113
sg9
g30
sg11
S'15'
p5243
sb(I0
I0
I307
tp5244
sg1
(g2
g3
Ntp5245
Rp5246
(dp5247
g7
S'24'
p5248
sg9
g10
sg11
S'30'
p5249
sb(I1
I127
I0
tp5250
sg1
(g2
g3
Ntp5251
Rp5252
(dp5253
g7
S'20'
p5254
sg9
g10
sg11
S'17'
p5255
sb(I1
I529
I0
tp5256
sg1
(g2
g3
Ntp5257
Rp5258
(dp5259
g7
g71
sg9
g25
sg11
S'14'
p5260
sb(I0
I0
I119
tp5261
sg1
(g2
g3
Ntp5262
Rp5263
(dp5264
g7
g113
sg9
g10
sg11
g12
sbg38
sg1
(g2
g3
Ntp5265
Rp5266
(dp5267
g7
g71
sg9
g30
sg11
S'14'
p5268
sb(I0
I0
I308
tp5269
sg1
(g2
g3
Ntp5270
Rp5271
(dp5272
g7
S'25'
p5273
sg9
g10
sg11
S'16'
p5274
sb(I143
I0
I0
tp5275
sg1
(g2
g3
Ntp5276
Rp5277
(dp5278
g7
S'11'
p5279
sg9
g25
sg11
S'10'
p5280
sb(I0
I0
I59
tp5281
sg1
(g2
g3
Ntp5282
Rp5283
(dp5284
g7
g37
sg9
g10
sg11
g37
sbg38
sg1
(g2
g3
Ntp5285
Rp5286
(dp5287
g7
g113
sg9
g25
sg11
S'15'
p5288
sb(I0
I0
I113
tp5289
sg1
(g2
g3
Ntp5290
Rp5291
(dp5292
g7
S'11'
p5293
sg9
g25
sg11
g65
sb(I0
I0
I45
tp5294
s.