(dp0
ccopy_reg
_reconstructor
p1
(cRolloutKey
RolloutKey
p2
c__builtin__
object
p3
Ntp4
Rp5
(dp6
S'dealerScore'
p7
S'18'
p8
sS'moveName'
p9
S'Y'
p10
sS'playerScore'
p11
S'5'
p12
sb(I0
I112
I0
tp13
sg1
(g2
g3
Ntp14
Rp15
(dp16
g7
S'3'
p17
sg9
S'S'
p18
sg11
S'14'
p19
sb(I0
I0
I18
tp20
sg1
(g2
g3
Ntp21
Rp22
(dp23
g7
S'10'
p24
sg9
S'D'
p25
sg11
g12
sb(I0
I0
I216
tp26
sg1
(g2
g3
Ntp27
Rp28
(dp29
g7
g17
sg9
S'H'
p30
sg11
S'20'
p31
sb(I0
I0
I1282
tp32
sg1
(g2
g3
Ntp33
Rp34
(dp35
g7
S'8'
p36
sg9
g25
sg11
S'16'
p37
sb(I0
I0
I344
tp38
sg1
(g2
g3
Ntp39
Rp40
(dp41
g7
S'10'
p42
sg9
g30
sg11
g12
sb(I0
I0
I482
tp43
sg1
(g2
g3
Ntp44
Rp45
(dp46
g7
g17
sg9
g25
sg11
S'20'
p47
sb(I0
I0
I463
tp48
sg1
(g2
g3
Ntp49
Rp50
(dp51
g7
g17
sg9
g10
sg11
g36
sb(I1
I0
I1
tp52
sg1
(g2
g3
Ntp53
Rp54
(dp55
g7
S'25'
p56
sg9
g10
sg11
S'9'
p57
sb(I115
I0
I0
tp58
sg1
(g2
g3
Ntp59
Rp60
(dp61
g7
S'23'
p62
sg9
g10
sg11
S'6'
p63
sb(I65
I0
I0
tp64
sg1
(g2
g3
Ntp65
Rp66
(dp67
g7
S'19'
p68
sg9
g10
sg11
g36
sb(I0
I260
I0
tp69
sg1
(g2
g3
Ntp70
Rp71
(dp72
g7
g17
sg9
g25
sg11
S'14'
p73
sb(I0
I0
I382
tp74
sg1
(g2
g3
Ntp75
Rp76
(dp77
g7
S'2'
p78
sg9
g25
sg11
S'21'
p79
sb(I0
I0
I245
tp80
sg1
(g2
g3
Ntp81
Rp82
(dp83
g7
g17
sg9
g30
sg11
S'14'
p84
sb(I0
I0
I1068
tp85
sg1
(g2
g3
Ntp86
Rp87
(dp88
g7
S'10'
p89
sg9
g10
sg11
g12
sb(I2
I7
I0
tp90
sg1
(g2
g3
Ntp91
Rp92
(dp93
g7
S'11'
p94
sg9
g25
sg11
S'7'
p95
sb(I0
I0
I111
tp96
sg1
(g2
g3
Ntp97
Rp98
(dp99
g7
g17
sg9
g18
sg11
S'20'
p100
sb(I0
I0
I405
tp101
sg1
(g2
g3
Ntp102
Rp103
(dp104
g7
S'17'
p105
sg9
g10
sg11
S'4'
p106
sb(I0
I59
I0
tp107
sg1
(g2
g3
Ntp108
Rp109
(dp110
g7
S'23'
p111
sg9
g10
sg11
S'24'
p112
sb(I0
I862
I0
tp113
sg1
(g2
g3
Ntp114
Rp115
(dp116
g7
S'19'
p117
sg9
g10
sg11
S'19'
p118
sb(I0
I1396
I0
tp119
sg1
(g2
g3
Ntp120
Rp121
(dp122
g7
g12
sg9
g18
sg11
S'12'
p123
sb(I0
I0
I15
tp124
sg1
(g2
g3
Ntp125
Rp126
(dp127
g7
g106
sg9
g18
sg11
g78
sb(I0
I0
I34
tp128
sg1
(g2
g3
Ntp129
Rp130
(dp131
g7
g57
sg9
g18
sg11
g78
sb(I0
I0
I21
tp132
sg1
(g2
g3
Ntp133
Rp134
(dp135
g7
S'11'
p136
sg9
g25
sg11
g36
sb(I0
I0
I143
tp137
sg1
(g2
g3
Ntp138
Rp139
(dp140
g7
g12
sg9
g10
sg11
S'12'
p141
sb(I5
I9
I1
tp142
sg1
(g2
g3
Ntp143
Rp144
(dp145
g7
S'11'
p146
sg9
g30
sg11
g36
sb(I0
I0
I267
tp147
sg1
(g2
g3
Ntp148
Rp149
(dp150
g7
S'17'
p151
sg9
g10
sg11
S'31'
p152
sb(I0
I436
I0
tp153
sg1
(g2
g3
Ntp154
Rp155
(dp156
g7
S'11'
p157
sg9
g10
sg11
S'27'
p158
sb(I0
I40
I0
tp159
sg1
(g2
g3
Ntp160
Rp161
(dp162
g7
S'11'
p163
sg9
g18
sg11
g36
sb(I0
I0
I18
tp164
sg1
(g2
g3
Ntp165
Rp166
(dp167
g7
g57
sg9
g25
sg11
g78
sb(I0
I0
I15
tp168
sg1
(g2
g3
Ntp169
Rp170
(dp171
g7
g106
sg9
g25
sg11
g78
sb(I0
I0
I20
tp172
sg1
(g2
g3
Ntp173
Rp174
(dp175
g7
g12
sg9
g25
sg11
S'12'
p176
sb(I0
I0
I395
tp177
sg1
(g2
g3
Ntp178
Rp179
(dp180
g7
g17
sg9
g10
sg11
S'13'
p181
sb(I6
I8
I0
tp182
sg1
(g2
g3
Ntp183
Rp184
(dp185
g7
g95
sg9
g30
sg11
g57
sb(I0
I0
I369
tp186
sg1
(g2
g3
Ntp187
Rp188
(dp189
g7
g12
sg9
g30
sg11
S'12'
p190
sb(I0
I0
I933
tp191
sg1
(g2
g3
Ntp192
Rp193
(dp194
g7
g106
sg9
g25
sg11
g12
sb(I0
I0
I44
tp195
sg1
(g2
g3
Ntp196
Rp197
(dp198
g7
S'22'
p199
sg9
g10
sg11
S'22'
p200
sb(I0
I1204
I0
tp201
sg1
(g2
g3
Ntp202
Rp203
(dp204
g7
g95
sg9
g25
sg11
g57
sb(I0
I0
I139
tp205
sg1
(g2
g3
Ntp206
Rp207
(dp208
g7
g57
sg9
g30
sg11
g78
sb(I0
I0
I26
tp209
sg1
(g2
g3
Ntp210
Rp211
(dp212
g7
S'22'
p213
sg9
g10
sg11
S'25'
p214
sb(I2
I933
I0
tp215
sg1
(g2
g3
Ntp216
Rp217
(dp218
g7
g78
sg9
g10
sg11
S'18'
p219
sb(I11
I17
I1
tp220
sg1
(g2
g3
Ntp221
Rp222
(dp223
g7
S'24'
p224
sg9
g10
sg11
S'15'
p225
sb(I523
I0
I0
tp226
sg1
(g2
g3
Ntp227
Rp228
(dp229
g7
g95
sg9
g30
sg11
g12
sb(I0
I0
I130
tp230
sg1
(g2
g3
Ntp231
Rp232
(dp233
g7
g63
sg9
g25
sg11
S'11'
p234
sb(I0
I0
I204
tp235
sg1
(g2
g3
Ntp236
Rp237
(dp238
g7
S'22'
p239
sg9
g10
sg11
S'18'
p240
sb(I671
I0
I0
tp241
sg1
(g2
g3
Ntp242
Rp243
(dp244
g7
g63
sg9
g30
sg11
S'11'
p245
sb(I0
I0
I487
tp246
sg1
(g2
g3
Ntp247
Rp248
(dp249
g7
g36
sg9
g30
sg11
g78
sb(I0
I0
I18
tp250
sg1
(g2
g3
Ntp251
Rp252
(dp253
g7
S'20'
p254
sg9
g10
sg11
S'19'
p255
sb(I0
I1753
I0
tp256
sg1
(g2
g3
Ntp257
Rp258
(dp259
g7
S'25'
p260
sg9
g10
sg11
S'30'
p261
sb(I0
I293
I0
tp262
sg1
(g2
g3
Ntp263
Rp264
(dp265
g7
g57
sg9
g10
sg11
S'30'
p266
sb(I0
I36
I0
tp267
sg1
(g2
g3
Ntp268
Rp269
(dp270
g7
g36
sg9
g18
sg11
g78
sb(I0
I0
I18
tp271
sg1
(g2
g3
Ntp272
Rp273
(dp274
g7
g95
sg9
g10
sg11
g12
sb(I0
I1
I0
tp275
sg1
(g2
g3
Ntp276
Rp277
(dp278
g7
S'22'
p279
sg9
g10
sg11
S'24'
p280
sb(I0
I957
I0
tp281
sg1
(g2
g3
Ntp282
Rp283
(dp284
g7
g36
sg9
g10
sg11
S'31'
p285
sb(I0
I8
I0
tp286
sg1
(g2
g3
Ntp287
Rp288
(dp289
g7
S'23'
p290
sg9
g10
sg11
S'21'
p291
sb(I739
I0
I0
tp292
sg1
(g2
g3
Ntp293
Rp294
(dp295
g7
g95
sg9
g10
sg11
S'25'
p296
sb(I0
I31
I0
tp297
sg1
(g2
g3
Ntp298
Rp299
(dp300
g7
S'24'
p301
sg9
g10
sg11
g106
sb(I22
I0
I0
tp302
sg1
(g2
g3
Ntp303
Rp304
(dp305
g7
g63
sg9
g10
sg11
S'11'
p306
sb(I5
I3
I0
tp307
sg1
(g2
g3
Ntp308
Rp309
(dp310
g7
g63
sg9
g25
sg11
S'13'
p311
sb(I0
I0
I399
tp312
sg1
(g2
g3
Ntp313
Rp314
(dp315
g7
S'18'
p316
sg9
g10
sg11
g95
sb(I0
I199
I0
tp317
sg1
(g2
g3
Ntp318
Rp319
(dp320
g7
S'23'
p321
sg9
g10
sg11
S'29'
p322
sb(I0
I463
I0
tp323
sg1
(g2
g3
Ntp324
Rp325
(dp326
g7
g57
sg9
g18
sg11
S'12'
p327
sb(I0
I0
I32
tp328
sg1
(g2
g3
Ntp329
Rp330
(dp331
g7
g106
sg9
g18
sg11
S'18'
p332
sb(I0
I0
I30
tp333
sg1
(g2
g3
Ntp334
Rp335
(dp336
g7
S'26'
p337
sg9
g10
sg11
S'25'
p338
sb(I0
I482
I0
tp339
sg1
(g2
g3
Ntp340
Rp341
(dp342
g7
g95
sg9
g25
sg11
S'20'
p343
sb(I0
I0
I505
tp344
sg1
(g2
g3
Ntp345
Rp346
(dp347
g7
S'20'
p348
sg9
g10
sg11
S'15'
p349
sb(I0
I1622
I0
tp350
sg1
(g2
g3
Ntp351
Rp352
(dp353
g7
g95
sg9
g18
sg11
S'14'
p354
sb(I0
I0
I24
tp355
sg1
(g2
g3
Ntp356
Rp357
(dp358
g7
g95
sg9
g30
sg11
S'20'
p359
sb(I0
I0
I1299
tp360
sg1
(g2
g3
Ntp361
Rp362
(dp363
g7
S'26'
p364
sg9
g10
sg11
S'18'
p365
sb(I381
I0
I0
tp366
sg1
(g2
g3
Ntp367
Rp368
(dp369
g7
S'26'
p370
sg9
g10
sg11
S'12'
p371
sb(I313
I0
I0
tp372
sg1
(g2
g3
Ntp373
Rp374
(dp375
g7
g36
sg9
g10
sg11
S'13'
p376
sb(I1
I23
I0
tp377
sg1
(g2
g3
Ntp378
Rp379
(dp380
g7
g95
sg9
g25
sg11
S'14'
p381
sb(I0
I0
I369
tp382
sg1
(g2
g3
Ntp383
Rp384
(dp385
g7
g95
sg9
g18
sg11
S'20'
p386
sb(I0
I0
I399
tp387
sg1
(g2
g3
Ntp388
Rp389
(dp390
g7
g106
sg9
g18
sg11
g63
sb(I0
I0
I28
tp391
sg1
(g2
g3
Ntp392
Rp393
(dp394
g7
g95
sg9
g10
sg11
S'20'
p395
sb(I58
I6
I1
tp396
sg1
(g2
g3
Ntp397
Rp398
(dp399
g7
g17
sg9
g10
sg11
S'20'
p400
sb(I27
I14
I3
tp401
sg1
(g2
g3
Ntp402
Rp403
(dp404
g7
S'23'
p405
sg9
g10
sg11
S'22'
p406
sb(I0
I1029
I0
tp407
sg1
(g2
g3
Ntp408
Rp409
(dp410
g7
g95
sg9
g30
sg11
S'14'
p411
sb(I0
I0
I1048
tp412
sg1
(g2
g3
Ntp413
Rp414
(dp415
g7
g78
sg9
g18
sg11
S'18'
p416
sb(I0
I0
I27
tp417
sg1
(g2
g3
Ntp418
Rp419
(dp420
g7
S'21'
p421
sg9
g10
sg11
S'23'
p422
sb(I0
I1810
I0
tp423
sg1
(g2
g3
Ntp424
Rp425
(dp426
g7
g36
sg9
g10
sg11
S'22'
p427
sb(I0
I36
I0
tp428
sg1
(g2
g3
Ntp429
Rp430
(dp431
g7
S'24'
p432
sg9
g10
sg11
S'20'
p433
sb(I766
I0
I0
tp434
sg1
(g2
g3
Ntp435
Rp436
(dp437
g7
g95
sg9
g30
sg11
S'13'
p438
sb(I0
I0
I1127
tp439
sg1
(g2
g3
Ntp440
Rp441
(dp442
g7
S'10'
p443
sg9
g18
sg11
g36
sb(I0
I0
I101
tp444
sg1
(g2
g3
Ntp445
Rp446
(dp447
g7
g106
sg9
g10
sg11
S'17'
p448
sb(I8
I15
I0
tp449
sg1
(g2
g3
Ntp450
Rp451
(dp452
g7
S'21'
p453
sg9
g10
sg11
g12
sb(I0
I84
I0
tp454
sg1
(g2
g3
Ntp455
Rp456
(dp457
g7
g106
sg9
g18
sg11
S'14'
p458
sb(I0
I0
I31
tp459
sg1
(g2
g3
Ntp460
Rp461
(dp462
g7
g17
sg9
g10
sg11
S'22'
p463
sb(I0
I48
I0
tp464
sg1
(g2
g3
Ntp465
Rp466
(dp467
g7
S'11'
p468
sg9
g30
sg11
g95
sb(I0
I0
I225
tp469
sg1
(g2
g3
Ntp470
Rp471
(dp472
g7
g12
sg9
g25
sg11
S'14'
p473
sb(I0
I0
I388
tp474
sg1
(g2
g3
Ntp475
Rp476
(dp477
g7
g12
sg9
g30
sg11
g78
sb(I0
I0
I27
tp478
sg1
(g2
g3
Ntp479
Rp480
(dp481
g7
S'10'
p482
sg9
g25
sg11
g36
sb(I0
I0
I535
tp483
sg1
(g2
g3
Ntp484
Rp485
(dp486
g7
S'19'
p487
sg9
g10
sg11
S'27'
p488
sb(I0
I1358
I0
tp489
sg1
(g2
g3
Ntp490
Rp491
(dp492
g7
g12
sg9
g18
sg11
g78
sb(I0
I0
I22
tp493
sg1
(g2
g3
Ntp494
Rp495
(dp496
g7
g12
sg9
g18
sg11
S'14'
p497
sb(I0
I0
I12
tp498
sg1
(g2
g3
Ntp499
Rp500
(dp501
g7
g57
sg9
g25
sg11
g95
sb(I0
I0
I91
tp502
sg1
(g2
g3
Ntp503
Rp504
(dp505
g7
g106
sg9
g10
sg11
S'18'
p506
sb(I16
I9
I1
tp507
sg1
(g2
g3
Ntp508
Rp509
(dp510
g7
g12
sg9
g25
sg11
g78
sb(I0
I0
I25
tp511
sg1
(g2
g3
Ntp512
Rp513
(dp514
g7
S'10'
p515
sg9
g30
sg11
g36
sb(I0
I0
I1024
tp516
sg1
(g2
g3
Ntp517
Rp518
(dp519
g7
g17
sg9
g30
sg11
S'12'
p520
sb(I0
I0
I969
tp521
sg1
(g2
g3
Ntp522
Rp523
(dp524
g7
S'10'
p525
sg9
g10
sg11
S'23'
p526
sb(I0
I173
I0
tp527
sg1
(g2
g3
Ntp528
Rp529
(dp530
g7
S'20'
p531
sg9
g10
sg11
S'20'
p532
sb(I0
I2412
I0
tp533
sg1
(g2
g3
Ntp534
Rp535
(dp536
g7
S'10'
p537
sg9
g10
sg11
S'27'
p538
sb(I0
I138
I0
tp539
sg1
(g2
g3
Ntp540
Rp541
(dp542
g7
g12
sg9
g10
sg11
S'26'
p543
sb(I0
I33
I0
tp544
sg1
(g2
g3
Ntp545
Rp546
(dp547
g7
g17
sg9
g25
sg11
S'12'
p548
sb(I0
I0
I416
tp549
sg1
(g2
g3
Ntp550
Rp551
(dp552
g7
S'18'
p553
sg9
g10
sg11
g78
sb(I0
I35
I0
tp554
sg1
(g2
g3
Ntp555
Rp556
(dp557
g7
g12
sg9
g30
sg11
g95
sb(I0
I0
I227
tp558
sg1
(g2
g3
Ntp559
Rp560
(dp561
g7
g95
sg9
g10
sg11
g63
sb(I0
I2
I0
tp562
sg1
(g2
g3
Ntp563
Rp564
(dp565
g7
g17
sg9
g18
sg11
S'12'
p566
sb(I0
I0
I19
tp567
sg1
(g2
g3
Ntp568
Rp569
(dp570
g7
S'17'
p571
sg9
g10
sg11
S'17'
p572
sb(I1
I1426
I0
tp573
sg1
(g2
g3
Ntp574
Rp575
(dp576
g7
g36
sg9
g10
sg11
g95
sb(I2
I1
I0
tp577
sg1
(g2
g3
Ntp578
Rp579
(dp580
g7
g12
sg9
g25
sg11
g95
sb(I0
I0
I108
tp581
sg1
(g2
g3
Ntp582
Rp583
(dp584
g7
S'23'
p585
sg9
g10
sg11
S'18'
p586
sb(I653
I0
I0
tp587
sg1
(g2
g3
Ntp588
Rp589
(dp590
g7
S'23'
p591
sg9
g10
sg11
S'30'
p592
sb(I2
I452
I0
tp593
sg1
(g2
g3
Ntp594
Rp595
(dp596
g7
S'10'
p597
sg9
g30
sg11
S'11'
p598
sb(I0
I0
I1940
tp599
sg1
(g2
g3
Ntp600
Rp601
(dp602
g7
S'10'
p603
sg9
g25
sg11
S'11'
p604
sb(I0
I0
I829
tp605
sg1
(g2
g3
Ntp606
Rp607
(dp608
g7
g106
sg9
g30
sg11
S'14'
p609
sb(I0
I0
I1046
tp610
sg1
(g2
g3
Ntp611
Rp612
(dp613
g7
g78
sg9
g25
sg11
g57
sb(I0
I0
I159
tp614
sg1
(g2
g3
Ntp615
Rp616
(dp617
g7
S'23'
p618
sg9
g10
sg11
S'23'
p619
sb(I2
I1004
I0
tp620
sg1
(g2
g3
Ntp621
Rp622
(dp623
g7
g63
sg9
g25
sg11
g36
sb(I0
I0
I124
tp624
sg1
(g2
g3
Ntp625
Rp626
(dp627
g7
S'26'
p628
sg9
g10
sg11
S'10'
p629
sb(I110
I0
I0
tp630
sg1
(g2
g3
Ntp631
Rp632
(dp633
g7
g36
sg9
g25
sg11
S'11'
p634
sb(I0
I0
I186
tp635
sg1
(g2
g3
Ntp636
Rp637
(dp638
g7
S'10'
p639
sg9
g10
sg11
S'11'
p640
sb(I6
I15
I1
tp641
sg1
(g2
g3
Ntp642
Rp643
(dp644
g7
S'11'
p645
sg9
g10
sg11
S'16'
p646
sb(I3
I17
I2
tp647
sg1
(g2
g3
Ntp648
Rp649
(dp650
g7
g36
sg9
g30
sg11
S'11'
p651
sb(I0
I0
I504
tp652
sg1
(g2
g3
Ntp653
Rp654
(dp655
g7
S'17'
p656
sg9
g10
sg11
S'14'
p657
sb(I1
I1245
I0
tp658
sg1
(g2
g3
Ntp659
Rp660
(dp661
g7
g95
sg9
g10
sg11
S'13'
p662
sb(I5
I17
I1
tp663
sg1
(g2
g3
Ntp664
Rp665
(dp666
g7
g57
sg9
g10
sg11
S'31'
p667
sb(I0
I9
I0
tp668
sg1
(g2
g3
Ntp669
Rp670
(dp671
g7
g36
sg9
g10
sg11
S'29'
p672
sb(I0
I23
I0
tp673
sg1
(g2
g3
Ntp674
Rp675
(dp676
g7
g95
sg9
g10
sg11
g57
sb(I1
I4
I0
tp677
sg1
(g2
g3
Ntp678
Rp679
(dp680
g7
S'18'
p681
sg9
g10
sg11
g36
sb(I0
I267
I0
tp682
sg1
(g2
g3
Ntp683
Rp684
(dp685
g7
g12
sg9
g25
sg11
S'19'
p686
sb(I0
I0
I262
tp687
sg1
(g2
g3
Ntp688
Rp689
(dp690
g7
g17
sg9
g10
sg11
S'28'
p691
sb(I0
I31
I0
tp692
sg1
(g2
g3
Ntp693
Rp694
(dp695
g7
g57
sg9
g25
sg11
S'14'
p696
sb(I0
I0
I392
tp697
sg1
(g2
g3
Ntp698
Rp699
(dp700
g7
g12
sg9
g30
sg11
S'19'
p701
sb(I0
I0
I1145
tp702
sg1
(g2
g3
Ntp703
Rp704
(dp705
g7
g95
sg9
g10
sg11
S'22'
p706
sb(I0
I37
I0
tp707
sg1
(g2
g3
Ntp708
Rp709
(dp710
g7
g78
sg9
g25
sg11
S'18'
p711
sb(I0
I0
I289
tp712
sg1
(g2
g3
Ntp713
Rp714
(dp715
g7
g12
sg9
g10
sg11
S'27'
p716
sb(I0
I31
I0
tp717
sg1
(g2
g3
Ntp718
Rp719
(dp720
g7
S'24'
p721
sg9
g10
sg11
S'26'
p722
sb(I0
I543
I0
tp723
sg1
(g2
g3
Ntp724
Rp725
(dp726
g7
g106
sg9
g10
sg11
S'31'
p727
sb(I0
I8
I0
tp728
sg1
(g2
g3
Ntp729
Rp730
(dp731
g7
g17
sg9
g25
sg11
S'21'
p732
sb(I0
I0
I233
tp733
sg1
(g2
g3
Ntp734
Rp735
(dp736
g7
g12
sg9
g10
sg11
S'19'
p737
sb(I14
I7
I1
tp738
sg1
(g2
g3
Ntp739
Rp740
(dp741
g7
S'26'
p742
sg9
g10
sg11
S'15'
p743
sb(I378
I0
I0
tp744
sg1
(g2
g3
Ntp745
Rp746
(dp747
g7
S'10'
p748
sg9
g10
sg11
g95
sb(I3
I12
I2
tp749
sg1
(g2
g3
Ntp750
Rp751
(dp752
g7
g106
sg9
g10
sg11
S'26'
p753
sb(I0
I29
I0
tp754
sg1
(g2
g3
Ntp755
Rp756
(dp757
g7
S'25'
p758
sg9
g10
sg11
S'24'
p759
sb(I3
I643
I0
tp760
sg1
(g2
g3
Ntp761
Rp762
(dp763
g7
g78
sg9
g10
sg11
S'12'
p764
sb(I6
I11
I2
tp765
sg1
(g2
g3
Ntp766
Rp767
(dp768
g7
S'21'
p769
sg9
g10
sg11
S'22'
p770
sb(I0
I1930
I0
tp771
sg1
(g2
g3
Ntp772
Rp773
(dp774
g7
g12
sg9
g10
sg11
g12
sbg275
sg1
(g2
g3
Ntp775
Rp776
(dp777
g7
S'18'
p778
sg9
g10
sg11
S'30'
p779
sb(I0
I952
I0
tp780
sg1
(g2
g3
Ntp781
Rp782
(dp783
g7
S'24'
p784
sg9
g10
sg11
S'12'
p785
sb(I445
I0
I0
tp786
sg1
(g2
g3
Ntp787
Rp788
(dp789
g7
g78
sg9
g18
sg11
S'12'
p790
sb(I0
I0
I21
tp791
sg1
(g2
g3
Ntp792
Rp793
(dp794
g7
g95
sg9
g10
sg11
S'31'
p795
sb(I0
I7
I0
tp796
sg1
(g2
g3
Ntp797
Rp798
(dp799
g7
g95
sg9
g30
sg11
g63
sb(I0
I0
I130
tp800
sg1
(g2
g3
Ntp801
Rp802
(dp803
g7
g95
sg9
g10
sg11
S'16'
p804
sb(I8
I16
I1
tp805
sg1
(g2
g3
Ntp806
Rp807
(dp808
g7
S'25'
p809
sg9
g10
sg11
S'29'
p810
sb(I0
I352
I0
tp811
sg1
(g2
g3
Ntp812
Rp813
(dp814
g7
g78
sg9
g30
sg11
g57
sb(I0
I0
I351
tp815
sg1
(g2
g3
Ntp816
Rp817
(dp818
g7
S'11'
p819
sg9
g25
sg11
S'16'
p820
sb(I0
I0
I364
tp821
sg1
(g2
g3
Ntp822
Rp823
(dp824
g7
g78
sg9
g30
sg11
S'12'
p825
sb(I0
I0
I905
tp826
sg1
(g2
g3
Ntp827
Rp828
(dp829
g7
S'25'
p830
sg9
g10
sg11
g63
sb(I60
I0
I0
tp831
sg1
(g2
g3
Ntp832
Rp833
(dp834
g7
g36
sg9
g25
sg11
g57
sb(I0
I0
I136
tp835
sg1
(g2
g3
Ntp836
Rp837
(dp838
g7
S'11'
p839
sg9
g30
sg11
S'16'
p840
sb(I0
I0
I1071
tp841
sg1
(g2
g3
Ntp842
Rp843
(dp844
g7
g78
sg9
g25
sg11
S'12'
p845
sb(I0
I0
I367
tp846
sg1
(g2
g3
Ntp847
Rp848
(dp849
g7
g36
sg9
g18
sg11
S'14'
p850
sb(I0
I0
I27
tp851
sg1
(g2
g3
Ntp852
Rp853
(dp854
g7
g95
sg9
g18
sg11
S'12'
p855
sb(I0
I0
I15
tp856
sg1
(g2
g3
Ntp857
Rp858
(dp859
g7
g106
sg9
g30
sg11
g95
sb(I0
I0
I226
tp860
sg1
(g2
g3
Ntp861
Rp862
(dp863
g7
g12
sg9
g25
sg11
g12
sb(I0
I0
I60
tp864
sg1
(g2
g3
Ntp865
Rp866
(dp867
g7
g106
sg9
g25
sg11
g95
sb(I0
I0
I127
tp868
sg1
(g2
g3
Ntp869
Rp870
(dp871
g7
g17
sg9
g25
sg11
g63
sb(I0
I0
I64
tp872
sg1
(g2
g3
Ntp873
Rp874
(dp875
g7
g63
sg9
g10
sg11
S'31'
p876
sb(I0
I9
I0
tp877
sg1
(g2
g3
Ntp878
Rp879
(dp880
g7
g63
sg9
g18
sg11
S'12'
p881
sb(I0
I0
I22
tp882
sg1
(g2
g3
Ntp883
Rp884
(dp885
g7
g95
sg9
g25
sg11
S'12'
p886
sb(I0
I0
I373
tp887
sg1
(g2
g3
Ntp888
Rp889
(dp890
g7
S'20'
p891
sg9
g10
sg11
S'22'
p892
sb(I0
I2894
I0
tp893
sg1
(g2
g3
Ntp894
Rp895
(dp896
g7
g36
sg9
g25
sg11
S'14'
p897
sb(I0
I0
I378
tp898
sg1
(g2
g3
Ntp899
Rp900
(dp901
g7
g36
sg9
g30
sg11
S'14'
p902
sb(I0
I0
I1039
tp903
sg1
(g2
g3
Ntp904
Rp905
(dp906
g7
S'26'
p907
sg9
g10
sg11
S'20'
p908
sb(I529
I0
I0
tp909
sg1
(g2
g3
Ntp910
Rp911
(dp912
g7
g95
sg9
g30
sg11
S'12'
p913
sb(I0
I0
I972
tp914
sg1
(g2
g3
Ntp915
Rp916
(dp917
g7
S'11'
p918
sg9
g25
sg11
S'13'
p919
sb(I0
I0
I401
tp920
sg1
(g2
g3
Ntp921
Rp922
(dp923
g7
g106
sg9
g25
sg11
S'11'
p924
sb(I0
I0
I201
tp925
sg1
(g2
g3
Ntp926
Rp927
(dp928
g7
S'11'
p929
sg9
g30
sg11
S'11'
p930
sb(I0
I0
I485
tp931
sg1
(g2
g3
Ntp932
Rp933
(dp934
g7
S'23'
p935
sg9
g10
sg11
S'16'
p936
sb(I666
I0
I0
tp937
sg1
(g2
g3
Ntp938
Rp939
(dp940
g7
S'24'
p941
sg9
g10
sg11
S'29'
p942
sb(I0
I389
I0
tp943
sg1
(g2
g3
Ntp944
Rp945
(dp946
g7
S'11'
p947
sg9
g30
sg11
S'13'
p948
sb(I0
I0
I1084
tp949
sg1
(g2
g3
Ntp950
Rp951
(dp952
g7
g106
sg9
g30
sg11
S'11'
p953
sb(I0
I0
I516
tp954
sg1
(g2
g3
Ntp955
Rp956
(dp957
g7
S'11'
p958
sg9
g25
sg11
S'11'
p959
sb(I0
I0
I229
tp960
sg1
(g2
g3
Ntp961
Rp962
(dp963
g7
S'21'
p964
sg9
g10
sg11
S'21'
p965
sb(I0
I1312
I0
tp966
sg1
(g2
g3
Ntp967
Rp968
(dp969
g7
S'20'
p970
sg9
g10
sg11
S'26'
p971
sb(I0
I1914
I0
tp972
sg1
(g2
g3
Ntp973
Rp974
(dp975
g7
S'11'
p976
sg9
g10
sg11
S'11'
p977
sb(I0
I8
I0
tp978
sg1
(g2
g3
Ntp979
Rp980
(dp981
g7
g63
sg9
g10
sg11
S'25'
p982
sb(I0
I41
I0
tp983
sg1
(g2
g3
Ntp984
Rp985
(dp986
g7
g12
sg9
g30
sg11
g63
sb(I0
I0
I141
tp987
sg1
(g2
g3
Ntp988
Rp989
(dp990
g7
S'21'
p991
sg9
g10
sg11
S'29'
p992
sb(I0
I875
I0
tp993
sg1
(g2
g3
Ntp994
Rp995
(dp996
g7
g12
sg9
g25
sg11
g63
sb(I0
I0
I80
tp997
sg1
(g2
g3
Ntp998
Rp999
(dp1000
g7
S'11'
p1001
sg9
g10
sg11
S'13'
p1002
sb(I1
I20
I1
tp1003
sg1
(g2
g3
Ntp1004
Rp1005
(dp1006
g7
S'25'
p1007
sg9
g10
sg11
S'23'
p1008
sb(I0
I755
I0
tp1009
sg1
(g2
g3
Ntp1010
Rp1011
(dp1012
g7
g36
sg9
g25
sg11
g106
sb(I0
I0
I22
tp1013
sg1
(g2
g3
Ntp1014
Rp1015
(dp1016
g7
S'22'
p1017
sg9
g10
sg11
S'15'
p1018
sb(I709
I0
I0
tp1019
sg1
(g2
g3
Ntp1020
Rp1021
(dp1022
g7
g36
sg9
g10
sg11
S'27'
p1023
sb(I0
I32
I0
tp1024
sg1
(g2
g3
Ntp1025
Rp1026
(dp1027
g7
g57
sg9
g30
sg11
S'19'
p1028
sb(I0
I0
I1152
tp1029
sg1
(g2
g3
Ntp1030
Rp1031
(dp1032
g7
g106
sg9
g10
sg11
S'14'
p1033
sb(I8
I13
I1
tp1034
sg1
(g2
g3
Ntp1035
Rp1036
(dp1037
g7
S'20'
p1038
sg9
g10
sg11
S'12'
p1039
sb(I0
I1352
I0
tp1040
sg1
(g2
g3
Ntp1041
Rp1042
(dp1043
g7
g57
sg9
g25
sg11
S'19'
p1044
sb(I0
I0
I268
tp1045
sg1
(g2
g3
Ntp1046
Rp1047
(dp1048
g7
S'25'
p1049
sg9
g10
sg11
S'21'
p1050
sb(I544
I0
I0
tp1051
sg1
(g2
g3
Ntp1052
Rp1053
(dp1054
g7
g36
sg9
g10
sg11
g106
sbg275
sg1
(g2
g3
Ntp1055
Rp1056
(dp1057
g7
S'19'
p1058
sg9
g10
sg11
S'13'
p1059
sb(I0
I1278
I0
tp1060
sg1
(g2
g3
Ntp1061
Rp1062
(dp1063
g7
g63
sg9
g10
sg11
g95
sb(I2
I1
I0
tp1064
sg1
(g2
g3
Ntp1065
Rp1066
(dp1067
g7
g57
sg9
g10
sg11
S'19'
p1068
sb(I12
I16
I3
tp1069
sg1
(g2
g3
Ntp1070
Rp1071
(dp1072
g7
S'17'
p1073
sg9
g10
sg11
S'16'
p1074
sb(I0
I1446
I0
tp1075
sg1
(g2
g3
Ntp1076
Rp1077
(dp1078
g7
S'24'
p1079
sg9
g10
sg11
S'22'
p1080
sb(I0
I905
I0
tp1081
sg1
(g2
g3
Ntp1082
Rp1083
(dp1084
g7
g106
sg9
g25
sg11
S'14'
p1085
sb(I0
I0
I392
tp1086
sg1
(g2
g3
Ntp1087
Rp1088
(dp1089
g7
S'21'
p1090
sg9
g10
sg11
S'18'
p1091
sb(I0
I1120
I0
tp1092
sg1
(g2
g3
Ntp1093
Rp1094
(dp1095
g7
g36
sg9
g10
sg11
S'26'
p1096
sb(I0
I30
I0
tp1097
sg1
(g2
g3
Ntp1098
Rp1099
(dp1100
g7
S'18'
p1101
sg9
g10
sg11
S'16'
p1102
sb(I1
I1349
I0
tp1103
sg1
(g2
g3
Ntp1104
Rp1105
(dp1106
g7
S'26'
p1107
sg9
g10
sg11
S'23'
p1108
sb(I1
I564
I0
tp1109
sg1
(g2
g3
Ntp1110
Rp1111
(dp1112
g7
g63
sg9
g10
sg11
S'12'
p1113
sb(I6
I7
I1
tp1114
sg1
(g2
g3
Ntp1115
Rp1116
(dp1117
g7
g17
sg9
g18
sg11
g78
sb(I0
I0
I18
tp1118
sg1
(g2
g3
Ntp1119
Rp1120
(dp1121
g7
S'23'
p1122
sg9
g10
sg11
g78
sb(I27
I0
I0
tp1123
sg1
(g2
g3
Ntp1124
Rp1125
(dp1126
g7
g36
sg9
g10
sg11
S'18'
p1127
sb(I9
I17
I0
tp1128
sg1
(g2
g3
Ntp1129
Rp1130
(dp1131
g7
S'25'
p1132
sg9
g10
sg11
S'12'
p1133
sb(I377
I0
I0
tp1134
sg1
(g2
g3
Ntp1135
Rp1136
(dp1137
g7
g36
sg9
g30
sg11
S'18'
p1138
sb(I0
I0
I1136
tp1139
sg1
(g2
g3
Ntp1140
Rp1141
(dp1142
g7
g36
sg9
g30
sg11
g57
sb(I0
I0
I341
tp1143
sg1
(g2
g3
Ntp1144
Rp1145
(dp1146
g7
g36
sg9
g25
sg11
S'18'
p1147
sb(I0
I0
I262
tp1148
sg1
(g2
g3
Ntp1149
Rp1150
(dp1151
g7
S'10'
p1152
sg9
g18
sg11
S'16'
p1153
sb(I0
I0
I93
tp1154
sg1
(g2
g3
Ntp1155
Rp1156
(dp1157
g7
S'11'
p1158
sg9
g18
sg11
g106
sb(I0
I0
I27
tp1159
sg1
(g2
g3
Ntp1160
Rp1161
(dp1162
g7
g78
sg9
g10
sg11
S'13'
p1163
sb(I5
I16
I0
tp1164
sg1
(g2
g3
Ntp1165
Rp1166
(dp1167
g7
g12
sg9
g10
sg11
S'22'
p1168
sb(I0
I46
I0
tp1169
sg1
(g2
g3
Ntp1170
Rp1171
(dp1172
g7
g63
sg9
g30
sg11
S'12'
p1173
sb(I0
I0
I980
tp1174
sg1
(g2
g3
Ntp1175
Rp1176
(dp1177
g7
g17
sg9
g25
sg11
g78
sb(I0
I0
I31
tp1178
sg1
(g2
g3
Ntp1179
Rp1180
(dp1181
g7
g57
sg9
g30
sg11
g106
sb(I0
I0
I45
tp1182
sg1
(g2
g3
Ntp1183
Rp1184
(dp1185
g7
S'11'
p1186
sg9
g30
sg11
g106
sb(I0
I0
I33
tp1187
sg1
(g2
g3
Ntp1188
Rp1189
(dp1190
g7
S'10'
p1191
sg9
g30
sg11
S'16'
p1192
sb(I0
I0
I4404
tp1193
sg1
(g2
g3
Ntp1194
Rp1195
(dp1196
g7
g17
sg9
g30
sg11
g78
sb(I0
I0
I24
tp1197
sg1
(g2
g3
Ntp1198
Rp1199
(dp1200
g7
g57
sg9
g30
sg11
S'12'
p1201
sb(I0
I0
I1009
tp1202
sg1
(g2
g3
Ntp1203
Rp1204
(dp1205
g7
S'11'
p1206
sg9
g25
sg11
g106
sb(I0
I0
I25
tp1207
sg1
(g2
g3
Ntp1208
Rp1209
(dp1210
g7
S'10'
p1211
sg9
g25
sg11
S'16'
p1212
sb(I0
I0
I1442
tp1213
sg1
(g2
g3
Ntp1214
Rp1215
(dp1216
g7
g36
sg9
g18
sg11
S'18'
p1217
sb(I0
I0
I30
tp1218
sg1
(g2
g3
Ntp1219
Rp1220
(dp1221
g7
g63
sg9
g25
sg11
S'12'
p1222
sb(I0
I0
I380
tp1223
sg1
(g2
g3
Ntp1224
Rp1225
(dp1226
g7
S'22'
p1227
sg9
g10
sg11
S'20'
p1228
sb(I1016
I0
I0
tp1229
sg1
(g2
g3
Ntp1230
Rp1231
(dp1232
g7
S'17'
p1233
sg9
g10
sg11
g95
sb(I0
I229
I0
tp1234
sg1
(g2
g3
Ntp1235
Rp1236
(dp1237
g7
S'25'
p1238
sg9
g10
sg11
S'22'
p1239
sb(I1
I790
I0
tp1240
sg1
(g2
g3
Ntp1241
Rp1242
(dp1243
g7
S'10'
p1244
sg9
g25
sg11
g106
sb(I0
I0
I83
tp1245
sg1
(g2
g3
Ntp1246
Rp1247
(dp1248
g7
S'10'
p1249
sg9
g30
sg11
g106
sb(I0
I0
I144
tp1250
sg1
(g2
g3
Ntp1251
Rp1252
(dp1253
g7
S'22'
p1254
sg9
g10
sg11
g57
sb(I150
I0
I0
tp1255
sg1
(g2
g3
Ntp1256
Rp1257
(dp1258
g7
g95
sg9
g18
sg11
g78
sb(I0
I0
I24
tp1259
sg1
(g2
g3
Ntp1260
Rp1261
(dp1262
g7
S'10'
p1263
sg9
g18
sg11
g106
sb(I0
I0
I90
tp1264
sg1
(g2
g3
Ntp1265
Rp1266
(dp1267
g7
g57
sg9
g25
sg11
S'12'
p1268
sb(I0
I0
I426
tp1269
sg1
(g2
g3
Ntp1270
Rp1271
(dp1272
g7
g95
sg9
g30
sg11
g78
sb(I0
I0
I21
tp1273
sg1
(g2
g3
Ntp1274
Rp1275
(dp1276
g7
g95
sg9
g10
sg11
S'29'
p1277
sb(I0
I28
I0
tp1278
sg1
(g2
g3
Ntp1279
Rp1280
(dp1281
g7
S'17'
p1282
sg9
g10
sg11
g12
sb(I0
I99
I0
tp1283
sg1
(g2
g3
Ntp1284
Rp1285
(dp1286
g7
g95
sg9
g25
sg11
g78
sb(I0
I0
I27
tp1287
sg1
(g2
g3
Ntp1288
Rp1289
(dp1290
g7
g17
sg9
g30
sg11
g63
sb(I0
I0
I123
tp1291
sg1
(g2
g3
Ntp1292
Rp1293
(dp1294
g7
S'10'
p1295
sg9
g10
sg11
g106
sb(I0
I2
I0
tp1296
sg1
(g2
g3
Ntp1297
Rp1298
(dp1299
g7
S'19'
p1300
sg9
g10
sg11
g106
sb(I0
I47
I0
tp1301
sg1
(g2
g3
Ntp1302
Rp1303
(dp1304
g7
g17
sg9
g10
sg11
S'19'
p1305
sb(I14
I4
I2
tp1306
sg1
(g2
g3
Ntp1307
Rp1308
(dp1309
g7
S'10'
p1310
sg9
g30
sg11
S'10'
p1311
sb(I0
I0
I1598
tp1312
sg1
(g2
g3
Ntp1313
Rp1314
(dp1315
g7
S'18'
p1316
sg9
g10
sg11
S'14'
p1317
sb(I0
I1223
I0
tp1318
sg1
(g2
g3
Ntp1319
Rp1320
(dp1321
g7
S'18'
p1322
sg9
g10
sg11
S'10'
p1323
sb(I0
I437
I0
tp1324
sg1
(g2
g3
Ntp1325
Rp1326
(dp1327
g7
g106
sg9
g10
sg11
g63
sb(I0
I2
I0
tp1328
sg1
(g2
g3
Ntp1329
Rp1330
(dp1331
g7
S'19'
p1332
sg9
g10
sg11
S'31'
p1333
sb(I0
I387
I0
tp1334
sg1
(g2
g3
Ntp1335
Rp1336
(dp1337
g7
S'10'
p1338
sg9
g25
sg11
S'10'
p1339
sb(I0
I0
I713
tp1340
sg1
(g2
g3
Ntp1341
Rp1342
(dp1343
g7
g63
sg9
g10
sg11
g17
sbg275
sg1
(g2
g3
Ntp1344
Rp1345
(dp1346
g7
S'10'
p1347
sg9
g10
sg11
S'10'
p1348
sb(I6
I16
I0
tp1349
sg1
(g2
g3
Ntp1350
Rp1351
(dp1352
g7
g17
sg9
g30
sg11
S'19'
p1353
sb(I0
I0
I1162
tp1354
sg1
(g2
g3
Ntp1355
Rp1356
(dp1357
g7
g36
sg9
g10
sg11
g36
sb(I0
I3
I0
tp1358
sg1
(g2
g3
Ntp1359
Rp1360
(dp1361
g7
S'10'
p1362
sg9
g18
sg11
S'10'
p1363
sb(I0
I0
I81
tp1364
sg1
(g2
g3
Ntp1365
Rp1366
(dp1367
g7
S'23'
p1368
sg9
g10
sg11
g57
sb(I177
I0
I0
tp1369
sg1
(g2
g3
Ntp1370
Rp1371
(dp1372
g7
g17
sg9
g25
sg11
S'19'
p1373
sb(I0
I0
I271
tp1374
sg1
(g2
g3
Ntp1375
Rp1376
(dp1377
g7
S'21'
p1378
sg9
g10
sg11
S'24'
p1379
sb(I0
I1539
I0
tp1380
sg1
(g2
g3
Ntp1381
Rp1382
(dp1383
g7
S'25'
p1384
sg9
g10
sg11
S'18'
p1385
sb(I465
I0
I0
tp1386
sg1
(g2
g3
Ntp1387
Rp1388
(dp1389
g7
S'21'
p1390
sg9
g10
sg11
S'12'
p1391
sb(I0
I885
I0
tp1392
sg1
(g2
g3
Ntp1393
Rp1394
(dp1395
g7
S'11'
p1396
sg9
g25
sg11
S'17'
p1397
sb(I0
I0
I319
tp1398
sg1
(g2
g3
Ntp1399
Rp1400
(dp1401
g7
S'11'
p1402
sg9
g30
sg11
S'17'
p1403
sb(I0
I0
I1203
tp1404
sg1
(g2
g3
Ntp1405
Rp1406
(dp1407
g7
S'11'
p1408
sg9
g10
sg11
S'25'
p1409
sb(I0
I35
I0
tp1410
sg1
(g2
g3
Ntp1411
Rp1412
(dp1413
g7
g17
sg9
g10
sg11
S'29'
p1414
sb(I0
I27
I0
tp1415
sg1
(g2
g3
Ntp1416
Rp1417
(dp1418
g7
S'10'
p1419
sg9
g10
sg11
S'30'
p1420
sb(I0
I132
I0
tp1421
sg1
(g2
g3
Ntp1422
Rp1423
(dp1424
g7
S'11'
p1425
sg9
g10
sg11
S'17'
p1426
sb(I2
I13
I0
tp1427
sg1
(g2
g3
Ntp1428
Rp1429
(dp1430
g7
g12
sg9
g25
sg11
S'11'
p1431
sb(I0
I0
I191
tp1432
sg1
(g2
g3
Ntp1433
Rp1434
(dp1435
g7
g57
sg9
g10
sg11
S'17'
p1436
sb(I7
I12
I0
tp1437
sg1
(g2
g3
Ntp1438
Rp1439
(dp1440
g7
g57
sg9
g10
sg11
S'12'
p1441
sb(I6
I13
I1
tp1442
sg1
(g2
g3
Ntp1443
Rp1444
(dp1445
g7
S'19'
p1446
sg9
g10
sg11
S'17'
p1447
sb(I1
I1260
I0
tp1448
sg1
(g2
g3
Ntp1449
Rp1450
(dp1451
g7
g78
sg9
g30
sg11
g95
sb(I0
I0
I200
tp1452
sg1
(g2
g3
Ntp1453
Rp1454
(dp1455
g7
g63
sg9
g30
sg11
S'13'
p1456
sb(I0
I0
I1162
tp1457
sg1
(g2
g3
Ntp1458
Rp1459
(dp1460
g7
S'17'
p1461
sg9
g10
sg11
S'26'
p1462
sb(I0
I1540
I0
tp1463
sg1
(g2
g3
Ntp1464
Rp1465
(dp1466
g7
g57
sg9
g25
sg11
g57
sb(I0
I0
I166
tp1467
sg1
(g2
g3
Ntp1468
Rp1469
(dp1470
g7
S'18'
p1471
sg9
g10
sg11
S'25'
p1472
sb(I0
I1681
I0
tp1473
sg1
(g2
g3
Ntp1474
Rp1475
(dp1476
g7
S'19'
p1477
sg9
g10
sg11
g17
sb(I0
I2
I0
tp1478
sg1
(g2
g3
Ntp1479
Rp1480
(dp1481
g7
g106
sg9
g10
sg11
S'11'
p1482
sb(I4
I5
I1
tp1483
sg1
(g2
g3
Ntp1484
Rp1485
(dp1486
g7
S'23'
p1487
sg9
g10
sg11
S'20'
p1488
sb(I900
I0
I0
tp1489
sg1
(g2
g3
Ntp1490
Rp1491
(dp1492
g7
g12
sg9
g10
sg11
S'10'
p1493
sb(I1
I1
I0
tp1494
sg1
(g2
g3
Ntp1495
Rp1496
(dp1497
g7
S'10'
p1498
sg9
g10
sg11
S'25'
p1499
sb(I0
I136
I0
tp1500
sg1
(g2
g3
Ntp1501
Rp1502
(dp1503
g7
g106
sg9
g10
sg11
S'22'
p1504
sb(I0
I48
I0
tp1505
sg1
(g2
g3
Ntp1506
Rp1507
(dp1508
g7
g63
sg9
g10
sg11
S'24'
p1509
sb(I0
I45
I0
tp1510
sg1
(g2
g3
Ntp1511
Rp1512
(dp1513
g7
S'23'
p1514
sg9
g10
sg11
S'12'
p1515
sb(I525
I0
I0
tp1516
sg1
(g2
g3
Ntp1517
Rp1518
(dp1519
g7
g17
sg9
g10
sg11
S'26'
p1520
sb(I0
I25
I0
tp1521
sg1
(g2
g3
Ntp1522
Rp1523
(dp1524
g7
S'21'
p1525
sg9
g10
sg11
S'27'
p1526
sb(I0
I1197
I0
tp1527
sg1
(g2
g3
Ntp1528
Rp1529
(dp1530
g7
S'18'
p1531
sg9
g10
sg11
S'28'
p1532
sb(I0
I1101
I0
tp1533
sg1
(g2
g3
Ntp1534
Rp1535
(dp1536
g7
S'10'
p1537
sg9
g10
sg11
S'17'
p1538
sb(I15
I64
I5
tp1539
sg1
(g2
g3
Ntp1540
Rp1541
(dp1542
g7
S'25'
p1543
sg9
g10
sg11
S'20'
p1544
sb(I680
I0
I0
tp1545
sg1
(g2
g3
Ntp1546
Rp1547
(dp1548
g7
g95
sg9
g10
sg11
S'21'
p1549
sb(I30
I1
I1
tp1550
sg1
(g2
g3
Ntp1551
Rp1552
(dp1553
g7
g95
sg9
g25
sg11
S'21'
p1554
sb(I0
I0
I256
tp1555
sg1
(g2
g3
Ntp1556
Rp1557
(dp1558
g7
S'10'
p1559
sg9
g30
sg11
S'17'
p1560
sb(I0
I0
I4623
tp1561
sg1
(g2
g3
Ntp1562
Rp1563
(dp1564
g7
S'19'
p1565
sg9
g10
sg11
S'25'
p1566
sb(I1
I1709
I0
tp1567
sg1
(g2
g3
Ntp1568
Rp1569
(dp1570
g7
S'10'
p1571
sg9
g25
sg11
S'17'
p1572
sb(I0
I0
I1254
tp1573
sg1
(g2
g3
Ntp1574
Rp1575
(dp1576
g7
g95
sg9
g10
sg11
S'26'
p1577
sb(I0
I41
I0
tp1578
sg1
(g2
g3
Ntp1579
Rp1580
(dp1581
g7
g95
sg9
g30
sg11
S'21'
p1582
sb(I0
I0
I1210
tp1583
sg1
(g2
g3
Ntp1584
Rp1585
(dp1586
g7
g12
sg9
g10
sg11
g36
sb(I1
I3
I0
tp1587
sg1
(g2
g3
Ntp1588
Rp1589
(dp1590
g7
g106
sg9
g25
sg11
g57
sb(I0
I0
I162
tp1591
sg1
(g2
g3
Ntp1592
Rp1593
(dp1594
g7
S'25'
p1595
sg9
g10
sg11
g17
sb(I1
I0
I0
tp1596
sg1
(g2
g3
Ntp1597
Rp1598
(dp1599
g7
g106
sg9
g30
sg11
S'10'
p1600
sb(I0
I0
I412
tp1601
sg1
(g2
g3
Ntp1602
Rp1603
(dp1604
g7
g78
sg9
g10
sg11
S'19'
p1605
sb(I11
I7
I1
tp1606
sg1
(g2
g3
Ntp1607
Rp1608
(dp1609
g7
S'10'
p1610
sg9
g25
sg11
g63
sb(I0
I0
I298
tp1611
sg1
(g2
g3
Ntp1612
Rp1613
(dp1614
g7
S'26'
p1615
sg9
g10
sg11
g57
sb(I93
I0
I0
tp1616
sg1
(g2
g3
Ntp1617
Rp1618
(dp1619
g7
g57
sg9
g10
sg11
S'21'
p1620
sb(I23
I2
I1
tp1621
sg1
(g2
g3
Ntp1622
Rp1623
(dp1624
g7
g106
sg9
g30
sg11
g57
sb(I0
I0
I356
tp1625
sg1
(g2
g3
Ntp1626
Rp1627
(dp1628
g7
g106
sg9
g25
sg11
S'10'
p1629
sb(I0
I0
I150
tp1630
sg1
(g2
g3
Ntp1631
Rp1632
(dp1633
g7
g95
sg9
g10
sg11
S'15'
p1634
sb(I7
I8
I1
tp1635
sg1
(g2
g3
Ntp1636
Rp1637
(dp1638
g7
g106
sg9
g10
sg11
S'10'
p1639
sb(I2
I5
I1
tp1640
sg1
(g2
g3
Ntp1641
Rp1642
(dp1643
g7
g78
sg9
g30
sg11
S'19'
p1644
sb(I0
I0
I1234
tp1645
sg1
(g2
g3
Ntp1646
Rp1647
(dp1648
g7
g78
sg9
g25
sg11
S'19'
p1649
sb(I0
I0
I245
tp1650
sg1
(g2
g3
Ntp1651
Rp1652
(dp1653
g7
S'18'
p1654
sg9
g10
sg11
S'31'
p1655
sb(I0
I429
I0
tp1656
sg1
(g2
g3
Ntp1657
Rp1658
(dp1659
g7
g106
sg9
g10
sg11
g57
sb(I0
I5
I1
tp1660
sg1
(g2
g3
Ntp1661
Rp1662
(dp1663
g7
g95
sg9
g25
sg11
S'19'
p1664
sb(I0
I0
I261
tp1665
sg1
(g2
g3
Ntp1666
Rp1667
(dp1668
g7
g63
sg9
g25
sg11
g95
sb(I0
I0
I108
tp1669
sg1
(g2
g3
Ntp1670
Rp1671
(dp1672
g7
S'20'
p1673
sg9
g10
sg11
g78
sb(I0
I52
I0
tp1674
sg1
(g2
g3
Ntp1675
Rp1676
(dp1677
g7
S'10'
p1678
sg9
g18
sg11
S'14'
p1679
sb(I0
I0
I100
tp1680
sg1
(g2
g3
Ntp1681
Rp1682
(dp1683
g7
g57
sg9
g25
sg11
g106
sb(I0
I0
I24
tp1684
sg1
(g2
g3
Ntp1685
Rp1686
(dp1687
g7
S'10'
p1688
sg9
g10
sg11
S'14'
p1689
sb(I19
I59
I6
tp1690
sg1
(g2
g3
Ntp1691
Rp1692
(dp1693
g7
g95
sg9
g30
sg11
S'19'
p1694
sb(I0
I0
I1233
tp1695
sg1
(g2
g3
Ntp1696
Rp1697
(dp1698
g7
g106
sg9
g18
sg11
g106
sb(I0
I0
I16
tp1699
sg1
(g2
g3
Ntp1700
Rp1701
(dp1702
g7
S'17'
p1703
sg9
g10
sg11
S'11'
p1704
sb(I0
I500
I0
tp1705
sg1
(g2
g3
Ntp1706
Rp1707
(dp1708
g7
S'10'
p1709
sg9
g25
sg11
S'14'
p1710
sb(I0
I0
I1523
tp1711
sg1
(g2
g3
Ntp1712
Rp1713
(dp1714
g7
S'18'
p1715
sg9
g10
sg11
g106
sb(I0
I57
I0
tp1716
sg1
(g2
g3
Ntp1717
Rp1718
(dp1719
g7
g106
sg9
g30
sg11
g106
sb(I0
I0
I40
tp1720
sg1
(g2
g3
Ntp1721
Rp1722
(dp1723
g7
g106
sg9
g25
sg11
g106
sb(I0
I0
I22
tp1724
sg1
(g2
g3
Ntp1725
Rp1726
(dp1727
g7
g36
sg9
g10
sg11
S'19'
p1728
sb(I15
I7
I2
tp1729
sg1
(g2
g3
Ntp1730
Rp1731
(dp1732
g7
S'10'
p1733
sg9
g30
sg11
S'14'
p1734
sb(I0
I0
I4333
tp1735
sg1
(g2
g3
Ntp1736
Rp1737
(dp1738
g7
g95
sg9
g18
sg11
S'18'
p1739
sb(I0
I0
I24
tp1740
sg1
(g2
g3
Ntp1741
Rp1742
(dp1743
g7
g57
sg9
g18
sg11
g106
sb(I0
I0
I19
tp1744
sg1
(g2
g3
Ntp1745
Rp1746
(dp1747
g7
S'24'
p1748
sg9
g10
sg11
g12
sb(I45
I0
I0
tp1749
sg1
(g2
g3
Ntp1750
Rp1751
(dp1752
g7
S'11'
p1753
sg9
g25
sg11
S'15'
p1754
sb(I0
I0
I376
tp1755
sg1
(g2
g3
Ntp1756
Rp1757
(dp1758
g7
S'11'
p1759
sg9
g30
sg11
g12
sb(I0
I0
I105
tp1760
sg1
(g2
g3
Ntp1761
Rp1762
(dp1763
g7
S'11'
p1764
sg9
g25
sg11
g12
sb(I0
I0
I48
tp1765
sg1
(g2
g3
Ntp1766
Rp1767
(dp1768
g7
g36
sg9
g10
sg11
S'24'
p1769
sb(I0
I37
I0
tp1770
sg1
(g2
g3
Ntp1771
Rp1772
(dp1773
g7
S'24'
p1774
sg9
g10
sg11
g57
sb(I124
I0
I0
tp1775
sg1
(g2
g3
Ntp1776
Rp1777
(dp1778
g7
g63
sg9
g30
sg11
S'18'
p1779
sb(I0
I0
I1109
tp1780
sg1
(g2
g3
Ntp1781
Rp1782
(dp1783
g7
S'11'
p1784
sg9
g30
sg11
S'15'
p1785
sb(I0
I0
I1111
tp1786
sg1
(g2
g3
Ntp1787
Rp1788
(dp1789
g7
S'11'
p1790
sg9
g10
sg11
S'24'
p1791
sb(I0
I38
I0
tp1792
sg1
(g2
g3
Ntp1793
Rp1794
(dp1795
g7
g63
sg9
g18
sg11
S'18'
p1796
sb(I0
I0
I31
tp1797
sg1
(g2
g3
Ntp1798
Rp1799
(dp1800
g7
S'22'
p1801
sg9
g10
sg11
g36
sb(I153
I0
I0
tp1802
sg1
(g2
g3
Ntp1803
Rp1804
(dp1805
g7
S'11'
p1806
sg9
g10
sg11
S'26'
p1807
sb(I0
I32
I0
tp1808
sg1
(g2
g3
Ntp1809
Rp1810
(dp1811
g7
g17
sg9
g10
sg11
S'25'
p1812
sb(I0
I40
I0
tp1813
sg1
(g2
g3
Ntp1814
Rp1815
(dp1816
g7
S'11'
p1817
sg9
g10
sg11
S'15'
p1818
sb(I1
I18
I0
tp1819
sg1
(g2
g3
Ntp1820
Rp1821
(dp1822
g7
g12
sg9
g10
sg11
S'31'
p1823
sb(I0
I9
I0
tp1824
sg1
(g2
g3
Ntp1825
Rp1826
(dp1827
g7
S'18'
p1828
sg9
g10
sg11
S'19'
p1829
sb(I1379
I0
I0
tp1830
sg1
(g2
g3
Ntp1831
Rp1832
(dp1833
g7
g17
sg9
g10
sg11
g57
sb(I1
I1
I1
tp1834
sg1
(g2
g3
Ntp1835
Rp1836
(dp1837
g7
g106
sg9
g18
sg11
S'12'
p1838
sb(I0
I0
I28
tp1839
sg1
(g2
g3
Ntp1840
Rp1841
(dp1842
g7
g78
sg9
g30
sg11
g78
sb(I0
I0
I27
tp1843
sg1
(g2
g3
Ntp1844
Rp1845
(dp1846
g7
S'19'
p1847
sg9
g10
sg11
S'26'
p1848
sb(I1
I1273
I0
tp1849
sg1
(g2
g3
Ntp1850
Rp1851
(dp1852
g7
g106
sg9
g30
sg11
S'12'
p1853
sb(I0
I0
I1011
tp1854
sg1
(g2
g3
Ntp1855
Rp1856
(dp1857
g7
g78
sg9
g25
sg11
g63
sb(I0
I0
I74
tp1858
sg1
(g2
g3
Ntp1859
Rp1860
(dp1861
g7
g17
sg9
g25
sg11
g57
sb(I0
I0
I141
tp1862
sg1
(g2
g3
Ntp1863
Rp1864
(dp1865
g7
g106
sg9
g25
sg11
S'12'
p1866
sb(I0
I0
I411
tp1867
sg1
(g2
g3
Ntp1868
Rp1869
(dp1870
g7
S'26'
p1871
sg9
g10
sg11
S'13'
p1872
sb(I338
I0
I0
tp1873
sg1
(g2
g3
Ntp1874
Rp1875
(dp1876
g7
g17
sg9
g30
sg11
g57
sb(I0
I0
I323
tp1877
sg1
(g2
g3
Ntp1878
Rp1879
(dp1880
g7
S'19'
p1881
sg9
g10
sg11
g12
sb(I0
I98
I0
tp1882
sg1
(g2
g3
Ntp1883
Rp1884
(dp1885
g7
S'19'
p1886
sg9
g10
sg11
S'28'
p1887
sb(I0
I1074
I0
tp1888
sg1
(g2
g3
Ntp1889
Rp1890
(dp1891
g7
S'24'
p1892
sg9
g10
sg11
S'23'
p1893
sb(I1
I845
I0
tp1894
sg1
(g2
g3
Ntp1895
Rp1896
(dp1897
g7
g36
sg9
g30
sg11
S'12'
p1898
sb(I0
I0
I932
tp1899
sg1
(g2
g3
Ntp1900
Rp1901
(dp1902
g7
g95
sg9
g18
sg11
g63
sb(I0
I0
I17
tp1903
sg1
(g2
g3
Ntp1904
Rp1905
(dp1906
g7
g57
sg9
g25
sg11
S'10'
p1907
sb(I0
I0
I174
tp1908
sg1
(g2
g3
Ntp1909
Rp1910
(dp1911
g7
S'25'
p1912
sg9
g10
sg11
S'27'
p1913
sb(I2
I458
I0
tp1914
sg1
(g2
g3
Ntp1915
Rp1916
(dp1917
g7
g17
sg9
g10
sg11
S'21'
p1918
sb(I30
I3
I2
tp1919
sg1
(g2
g3
Ntp1920
Rp1921
(dp1922
g7
S'11'
p1923
sg9
g10
sg11
S'30'
p1924
sb(I0
I31
I0
tp1925
sg1
(g2
g3
Ntp1926
Rp1927
(dp1928
g7
g36
sg9
g25
sg11
S'12'
p1929
sb(I0
I0
I422
tp1930
sg1
(g2
g3
Ntp1931
Rp1932
(dp1933
g7
g63
sg9
g30
sg11
S'19'
p1934
sb(I0
I0
I1213
tp1935
sg1
(g2
g3
Ntp1936
Rp1937
(dp1938
g7
g95
sg9
g25
sg11
g63
sb(I0
I0
I69
tp1939
sg1
(g2
g3
Ntp1940
Rp1941
(dp1942
g7
g17
sg9
g30
sg11
S'21'
p1943
sb(I0
I0
I1236
tp1944
sg1
(g2
g3
Ntp1945
Rp1946
(dp1947
g7
g36
sg9
g18
sg11
S'12'
p1948
sb(I0
I0
I17
tp1949
sg1
(g2
g3
Ntp1950
Rp1951
(dp1952
g7
g63
sg9
g25
sg11
S'19'
p1953
sb(I0
I0
I283
tp1954
sg1
(g2
g3
Ntp1955
Rp1956
(dp1957
g7
g12
sg9
g25
sg11
S'18'
p1958
sb(I0
I0
I283
tp1959
sg1
(g2
g3
Ntp1960
Rp1961
(dp1962
g7
g17
sg9
g25
sg11
S'11'
p1963
sb(I0
I0
I224
tp1964
sg1
(g2
g3
Ntp1965
Rp1966
(dp1967
g7
S'24'
p1968
sg9
g10
sg11
g78
sb(I12
I0
I0
tp1969
sg1
(g2
g3
Ntp1970
Rp1971
(dp1972
g7
S'10'
p1973
sg9
g25
sg11
S'19'
p1974
sb(I0
I0
I1027
tp1975
sg1
(g2
g3
Ntp1976
Rp1977
(dp1978
g7
S'20'
p1979
sg9
g10
sg11
S'23'
p1980
sb(I0
I2660
I0
tp1981
sg1
(g2
g3
Ntp1982
Rp1983
(dp1984
g7
g78
sg9
g10
sg11
S'17'
p1985
sb(I10
I10
I0
tp1986
sg1
(g2
g3
Ntp1987
Rp1988
(dp1989
g7
S'19'
p1990
sg9
g10
sg11
S'15'
p1991
sb(I0
I1273
I0
tp1992
sg1
(g2
g3
Ntp1993
Rp1994
(dp1995
g7
S'26'
p1996
sg9
g10
sg11
S'14'
p1997
sb(I358
I0
I0
tp1998
sg1
(g2
g3
Ntp1999
Rp2000
(dp2001
g7
S'22'
p2002
sg9
g10
sg11
S'12'
p2003
sb(I546
I0
I0
tp2004
sg1
(g2
g3
Ntp2005
Rp2006
(dp2007
g7
g106
sg9
g10
sg11
g95
sb(I0
I3
I0
tp2008
sg1
(g2
g3
Ntp2009
Rp2010
(dp2011
g7
g57
sg9
g18
sg11
g63
sb(I0
I0
I16
tp2012
sg1
(g2
g3
Ntp2013
Rp2014
(dp2015
g7
S'10'
p2016
sg9
g30
sg11
S'19'
p2017
sb(I0
I0
I4670
tp2018
sg1
(g2
g3
Ntp2019
Rp2020
(dp2021
g7
g17
sg9
g18
sg11
S'18'
p2022
sb(I0
I0
I20
tp2023
sg1
(g2
g3
Ntp2024
Rp2025
(dp2026
g7
g36
sg9
g18
sg11
g106
sb(I0
I0
I28
tp2027
sg1
(g2
g3
Ntp2028
Rp2029
(dp2030
g7
g17
sg9
g30
sg11
S'18'
p2031
sb(I0
I0
I1190
tp2032
sg1
(g2
g3
Ntp2033
Rp2034
(dp2035
g7
S'26'
p2036
sg9
g10
sg11
S'22'
p2037
sb(I0
I612
I0
tp2038
sg1
(g2
g3
Ntp2039
Rp2040
(dp2041
g7
S'22'
p2042
sg9
g10
sg11
S'27'
p2043
sb(I0
I688
I0
tp2044
sg1
(g2
g3
Ntp2045
Rp2046
(dp2047
g7
g17
sg9
g25
sg11
S'18'
p2048
sb(I0
I0
I297
tp2049
sg1
(g2
g3
Ntp2050
Rp2051
(dp2052
g7
g106
sg9
g10
sg11
g106
sbg1596
sg1
(g2
g3
Ntp2053
Rp2054
(dp2055
g7
S'26'
p2056
sg9
g10
sg11
g36
sb(I87
I0
I0
tp2057
sg1
(g2
g3
Ntp2058
Rp2059
(dp2060
g7
S'22'
p2061
sg9
g10
sg11
S'13'
p2062
sb(I659
I0
I0
tp2063
sg1
(g2
g3
Ntp2064
Rp2065
(dp2066
g7
S'10'
p2067
sg9
g10
sg11
S'19'
p2068
sb(I44
I61
I3
tp2069
sg1
(g2
g3
Ntp2070
Rp2071
(dp2072
g7
S'18'
p2073
sg9
g10
sg11
S'26'
p2074
sb(I1
I1524
I0
tp2075
sg1
(g2
g3
Ntp2076
Rp2077
(dp2078
g7
S'18'
p2079
sg9
g10
sg11
S'21'
p2080
sb(I1567
I0
I0
tp2081
sg1
(g2
g3
Ntp2082
Rp2083
(dp2084
g7
g63
sg9
g30
sg11
S'16'
p2085
sb(I0
I0
I1168
tp2086
sg1
(g2
g3
Ntp2087
Rp2088
(dp2089
g7
g63
sg9
g25
sg11
S'16'
p2090
sb(I0
I0
I328
tp2091
sg1
(g2
g3
Ntp2092
Rp2093
(dp2094
g7
g12
sg9
g30
sg11
S'14'
p2095
sb(I0
I0
I1075
tp2096
sg1
(g2
g3
Ntp2097
Rp2098
(dp2099
g7
g106
sg9
g10
sg11
S'29'
p2100
sb(I0
I33
I0
tp2101
sg1
(g2
g3
Ntp2102
Rp2103
(dp2104
g7
g57
sg9
g10
sg11
S'29'
p2105
sb(I0
I24
I0
tp2106
sg1
(g2
g3
Ntp2107
Rp2108
(dp2109
g7
S'23'
p2110
sg9
g10
sg11
S'14'
p2111
sb(I571
I0
I0
tp2112
sg1
(g2
g3
Ntp2113
Rp2114
(dp2115
g7
g63
sg9
g10
sg11
S'22'
p2116
sb(I0
I57
I0
tp2117
sg1
(g2
g3
Ntp2118
Rp2119
(dp2120
g7
g63
sg9
g18
sg11
S'16'
p2121
sb(I0
I0
I24
tp2122
sg1
(g2
g3
Ntp2123
Rp2124
(dp2125
g7
g57
sg9
g10
sg11
S'24'
p2126
sb(I0
I34
I0
tp2127
sg1
(g2
g3
Ntp2128
Rp2129
(dp2130
g7
g106
sg9
g10
sg11
S'24'
p2131
sb(I0
I46
I0
tp2132
sg1
(g2
g3
Ntp2133
Rp2134
(dp2135
g7
g95
sg9
g10
sg11
S'19'
p2136
sb(I15
I7
I1
tp2137
sg1
(g2
g3
Ntp2138
Rp2139
(dp2140
g7
g106
sg9
g25
sg11
g36
sb(I0
I0
I120
tp2141
sg1
(g2
g3
Ntp2142
Rp2143
(dp2144
g7
g106
sg9
g10
sg11
S'21'
p2145
sb(I31
I5
I1
tp2146
sg1
(g2
g3
Ntp2147
Rp2148
(dp2149
g7
S'17'
p2150
sg9
g10
sg11
S'23'
p2151
sb(I1
I2148
I0
tp2152
sg1
(g2
g3
Ntp2153
Rp2154
(dp2155
g7
S'21'
p2156
sg9
g10
sg11
S'20'
p2157
sb(I0
I1618
I0
tp2158
sg1
(g2
g3
Ntp2159
Rp2160
(dp2161
g7
g17
sg9
g25
sg11
g17
sb(I0
I0
I1
tp2162
sg1
(g2
g3
Ntp2163
Rp2164
(dp2165
g7
g106
sg9
g18
sg11
g36
sb(I0
I0
I28
tp2166
sg1
(g2
g3
Ntp2167
Rp2168
(dp2169
g7
g106
sg9
g30
sg11
S'21'
p2170
sb(I0
I0
I1296
tp2171
sg1
(g2
g3
Ntp2172
Rp2173
(dp2174
g7
g106
sg9
g10
sg11
g36
sb(I3
I3
I0
tp2175
sg1
(g2
g3
Ntp2176
Rp2177
(dp2178
g7
g106
sg9
g25
sg11
S'21'
p2179
sb(I0
I0
I223
tp2180
sg1
(g2
g3
Ntp2181
Rp2182
(dp2183
g7
g78
sg9
g10
sg11
S'27'
p2184
sb(I0
I30
I0
tp2185
sg1
(g2
g3
Ntp2186
Rp2187
(dp2188
g7
S'20'
p2189
sg9
g10
sg11
g95
sb(I0
I291
I0
tp2190
sg1
(g2
g3
Ntp2191
Rp2192
(dp2193
g7
g78
sg9
g30
sg11
S'16'
p2194
sb(I0
I0
I1120
tp2195
sg1
(g2
g3
Ntp2196
Rp2197
(dp2198
g7
g78
sg9
g25
sg11
S'10'
p2199
sb(I0
I0
I165
tp2200
sg1
(g2
g3
Ntp2201
Rp2202
(dp2203
g7
g63
sg9
g18
sg11
g63
sb(I0
I0
I26
tp2204
sg1
(g2
g3
Ntp2205
Rp2206
(dp2207
g7
g106
sg9
g30
sg11
g17
sb(I0
I0
I3
tp2208
sg1
(g2
g3
Ntp2209
Rp2210
(dp2211
g7
g78
sg9
g30
sg11
S'10'
p2212
sb(I0
I0
I430
tp2213
sg1
(g2
g3
Ntp2214
Rp2215
(dp2216
g7
S'10'
p2217
sg9
g10
sg11
S'28'
p2218
sb(I0
I111
I0
tp2219
sg1
(g2
g3
Ntp2220
Rp2221
(dp2222
g7
g63
sg9
g10
sg11
g63
sb(I2
I1
I0
tp2223
sg1
(g2
g3
Ntp2224
Rp2225
(dp2226
g7
g78
sg9
g25
sg11
S'16'
p2227
sb(I0
I0
I346
tp2228
sg1
(g2
g3
Ntp2229
Rp2230
(dp2231
g7
S'20'
p2232
sg9
g10
sg11
g57
sb(I0
I427
I0
tp2233
sg1
(g2
g3
Ntp2234
Rp2235
(dp2236
g7
g63
sg9
g25
sg11
g63
sb(I0
I0
I79
tp2237
sg1
(g2
g3
Ntp2238
Rp2239
(dp2240
g7
g78
sg9
g18
sg11
S'10'
p2241
sb(I0
I0
I35
tp2242
sg1
(g2
g3
Ntp2243
Rp2244
(dp2245
g7
g57
sg9
g25
sg11
g17
sbg2162
sg1
(g2
g3
Ntp2246
Rp2247
(dp2248
g7
g36
sg9
g10
sg11
S'12'
p2249
sb(I4
I11
I2
tp2250
sg1
(g2
g3
Ntp2251
Rp2252
(dp2253
g7
S'10'
p2254
sg9
g10
sg11
g36
sb(I2
I8
I0
tp2255
sg1
(g2
g3
Ntp2256
Rp2257
(dp2258
g7
g78
sg9
g10
sg11
S'22'
p2259
sb(I0
I52
I0
tp2260
sg1
(g2
g3
Ntp2261
Rp2262
(dp2263
g7
g78
sg9
g18
sg11
S'16'
p2264
sb(I0
I0
I28
tp2265
sg1
(g2
g3
Ntp2266
Rp2267
(dp2268
g7
g63
sg9
g30
sg11
g63
sb(I0
I0
I136
tp2269
sg1
(g2
g3
Ntp2270
Rp2271
(dp2272
g7
g63
sg9
g18
sg11
g106
sb(I0
I0
I27
tp2273
sg1
(g2
g3
Ntp2274
Rp2275
(dp2276
g7
g95
sg9
g10
sg11
S'18'
p2277
sb(I12
I10
I1
tp2278
sg1
(g2
g3
Ntp2279
Rp2280
(dp2281
g7
g78
sg9
g18
sg11
g63
sb(I0
I0
I35
tp2282
sg1
(g2
g3
Ntp2283
Rp2284
(dp2285
g7
g63
sg9
g30
sg11
S'10'
p2286
sb(I0
I0
I372
tp2287
sg1
(g2
g3
Ntp2288
Rp2289
(dp2290
g7
S'11'
p2291
sg9
g25
sg11
S'19'
p2292
sb(I0
I0
I241
tp2293
sg1
(g2
g3
Ntp2294
Rp2295
(dp2296
g7
g78
sg9
g10
sg11
g63
sbg2162
sg1
(g2
g3
Ntp2297
Rp2298
(dp2299
g7
S'10'
p2300
sg9
g10
sg11
S'26'
p2301
sb(I0
I137
I0
tp2302
sg1
(g2
g3
Ntp2303
Rp2304
(dp2305
g7
g63
sg9
g10
sg11
g106
sbg275
sg1
(g2
g3
Ntp2306
Rp2307
(dp2308
g7
S'11'
p2309
sg9
g30
sg11
S'19'
p2310
sb(I0
I0
I1145
tp2311
sg1
(g2
g3
Ntp2312
Rp2313
(dp2314
g7
S'18'
p2315
sg9
g10
sg11
S'11'
p2316
sb(I0
I499
I0
tp2317
sg1
(g2
g3
Ntp2318
Rp2319
(dp2320
g7
g95
sg9
g30
sg11
S'18'
p2321
sb(I0
I0
I1102
tp2322
sg1
(g2
g3
Ntp2323
Rp2324
(dp2325
g7
g12
sg9
g10
sg11
S'14'
p2326
sb(I6
I12
I0
tp2327
sg1
(g2
g3
Ntp2328
Rp2329
(dp2330
g7
g63
sg9
g10
sg11
S'10'
p2331
sbg1596
sg1
(g2
g3
Ntp2332
Rp2333
(dp2334
g7
S'21'
p2335
sg9
g10
sg11
S'16'
p2336
sb(I0
I1133
I0
tp2337
sg1
(g2
g3
Ntp2338
Rp2339
(dp2340
g7
g106
sg9
g10
sg11
S'19'
p2341
sb(I15
I7
I1
tp2342
sg1
(g2
g3
Ntp2343
Rp2344
(dp2345
g7
g63
sg9
g25
sg11
g106
sb(I0
I0
I27
tp2346
sg1
(g2
g3
Ntp2347
Rp2348
(dp2349
g7
g78
sg9
g30
sg11
g63
sb(I0
I0
I139
tp2350
sg1
(g2
g3
Ntp2351
Rp2352
(dp2353
g7
S'11'
p2354
sg9
g10
sg11
S'19'
p2355
sb(I6
I15
I0
tp2356
sg1
(g2
g3
Ntp2357
Rp2358
(dp2359
g7
g63
sg9
g30
sg11
g106
sb(I0
I0
I40
tp2360
sg1
(g2
g3
Ntp2361
Rp2362
(dp2363
g7
g95
sg9
g25
sg11
S'18'
p2364
sb(I0
I0
I284
tp2365
sg1
(g2
g3
Ntp2366
Rp2367
(dp2368
g7
S'17'
p2369
sg9
g10
sg11
S'30'
p2370
sb(I0
I986
I0
tp2371
sg1
(g2
g3
Ntp2372
Rp2373
(dp2374
g7
g63
sg9
g18
sg11
S'10'
p2375
sb(I0
I0
I15
tp2376
sg1
(g2
g3
Ntp2377
Rp2378
(dp2379
g7
S'11'
p2380
sg9
g10
sg11
S'28'
p2381
sb(I0
I23
I0
tp2382
sg1
(g2
g3
Ntp2383
Rp2384
(dp2385
g7
S'10'
p2386
sg9
g25
sg11
S'18'
p2387
sb(I0
I0
I1074
tp2388
sg1
(g2
g3
Ntp2389
Rp2390
(dp2391
g7
g17
sg9
g25
sg11
g106
sb(I0
I0
I22
tp2392
sg1
(g2
g3
Ntp2393
Rp2394
(dp2395
g7
S'10'
p2396
sg9
g30
sg11
S'18'
p2397
sb(I0
I0
I4479
tp2398
sg1
(g2
g3
Ntp2399
Rp2400
(dp2401
g7
g17
sg9
g30
sg11
g106
sb(I0
I0
I32
tp2402
sg1
(g2
g3
Ntp2403
Rp2404
(dp2405
g7
g57
sg9
g30
sg11
g95
sb(I0
I0
I247
tp2406
sg1
(g2
g3
Ntp2407
Rp2408
(dp2409
g7
S'19'
p2410
sg9
g10
sg11
S'30'
p2411
sb(I1
I836
I0
tp2412
sg1
(g2
g3
Ntp2413
Rp2414
(dp2415
g7
S'19'
p2416
sg9
g10
sg11
S'21'
p2417
sb(I1510
I0
I0
tp2418
sg1
(g2
g3
Ntp2419
Rp2420
(dp2421
g7
S'10'
p2422
sg9
g18
sg11
S'18'
p2423
sb(I0
I0
I88
tp2424
sg1
(g2
g3
Ntp2425
Rp2426
(dp2427
g7
S'10'
p2428
sg9
g10
sg11
S'18'
p2429
sb(I38
I58
I4
tp2430
sg1
(g2
g3
Ntp2431
Rp2432
(dp2433
g7
g17
sg9
g10
sg11
S'14'
p2434
sb(I6
I17
I2
tp2435
sg1
(g2
g3
Ntp2436
Rp2437
(dp2438
g7
S'11'
p2439
sg9
g10
sg11
S'23'
p2440
sb(I0
I41
I0
tp2441
sg1
(g2
g3
Ntp2442
Rp2443
(dp2444
g7
g12
sg9
g10
sg11
S'23'
p2445
sb(I0
I45
I0
tp2446
sg1
(g2
g3
Ntp2447
Rp2448
(dp2449
g7
S'25'
p2450
sg9
g10
sg11
g78
sb(I15
I0
I0
tp2451
sg1
(g2
g3
Ntp2452
Rp2453
(dp2454
g7
S'20'
p2455
sg9
g10
sg11
g36
sb(I0
I389
I0
tp2456
sg1
(g2
g3
Ntp2457
Rp2458
(dp2459
g7
g57
sg9
g10
sg11
S'23'
p2460
sb(I0
I37
I0
tp2461
sg1
(g2
g3
Ntp2462
Rp2463
(dp2464
g7
S'26'
p2465
sg9
g10
sg11
S'31'
p2466
sb(I0
I111
I0
tp2467
sg1
(g2
g3
Ntp2468
Rp2469
(dp2470
g7
S'24'
p2471
sg9
g10
sg11
g36
sb(I103
I0
I0
tp2472
sg1
(g2
g3
Ntp2473
Rp2474
(dp2475
g7
S'19'
p2476
sg9
g10
sg11
g95
sb(I0
I200
I0
tp2477
sg1
(g2
g3
Ntp2478
Rp2479
(dp2480
g7
S'10'
p2481
sg9
g10
sg11
S'21'
p2482
sb(I103
I15
I6
tp2483
sg1
(g2
g3
Ntp2484
Rp2485
(dp2486
g7
S'26'
p2487
sg9
g10
sg11
S'27'
p2488
sb(I0
I373
I0
tp2489
sg1
(g2
g3
Ntp2490
Rp2491
(dp2492
g7
S'10'
p2493
sg9
g30
sg11
g63
sb(I0
I0
I535
tp2494
sg1
(g2
g3
Ntp2495
Rp2496
(dp2497
g7
S'10'
p2498
sg9
g25
sg11
S'21'
p2499
sb(I0
I0
I843
tp2500
sg1
(g2
g3
Ntp2501
Rp2502
(dp2503
g7
g63
sg9
g10
sg11
S'16'
p2504
sb(I8
I5
I0
tp2505
sg1
(g2
g3
Ntp2506
Rp2507
(dp2508
g7
S'24'
p2509
sg9
g10
sg11
S'13'
p2510
sb(I488
I0
I0
tp2511
sg1
(g2
g3
Ntp2512
Rp2513
(dp2514
g7
S'17'
p2515
sg9
g10
sg11
S'19'
p2516
sb(I1454
I0
I0
tp2517
sg1
(g2
g3
Ntp2518
Rp2519
(dp2520
g7
g78
sg9
g10
sg11
g95
sb(I0
I3
I0
tp2521
sg1
(g2
g3
Ntp2522
Rp2523
(dp2524
g7
S'18'
p2525
sg9
g10
sg11
S'29'
p2526
sb(I1
I962
I0
tp2527
sg1
(g2
g3
Ntp2528
Rp2529
(dp2530
g7
S'10'
p2531
sg9
g30
sg11
S'21'
p2532
sb(I0
I0
I4998
tp2533
sg1
(g2
g3
Ntp2534
Rp2535
(dp2536
g7
g36
sg9
g10
sg11
S'25'
p2537
sb(I0
I36
I0
tp2538
sg1
(g2
g3
Ntp2539
Rp2540
(dp2541
g7
g12
sg9
g10
sg11
S'25'
p2542
sb(I0
I28
I0
tp2543
sg1
(g2
g3
Ntp2544
Rp2545
(dp2546
g7
g17
sg9
g25
sg11
S'10'
p2547
sb(I0
I0
I177
tp2548
sg1
(g2
g3
Ntp2549
Rp2550
(dp2551
g7
S'20'
p2552
sg9
g10
sg11
S'10'
p2553
sb(I0
I499
I0
tp2554
sg1
(g2
g3
Ntp2555
Rp2556
(dp2557
g7
S'23'
p2558
sg9
g10
sg11
g17
sbg1596
sg1
(g2
g3
Ntp2559
Rp2560
(dp2561
g7
g36
sg9
g30
sg11
g63
sb(I0
I0
I149
tp2562
sg1
(g2
g3
Ntp2563
Rp2564
(dp2565
g7
S'17'
p2566
sg9
g10
sg11
g17
sbg275
sg1
(g2
g3
Ntp2567
Rp2568
(dp2569
g7
g36
sg9
g25
sg11
g63
sb(I0
I0
I97
tp2570
sg1
(g2
g3
Ntp2571
Rp2572
(dp2573
g7
g17
sg9
g30
sg11
S'10'
p2574
sb(I0
I0
I349
tp2575
sg1
(g2
g3
Ntp2576
Rp2577
(dp2578
g7
g12
sg9
g10
sg11
g95
sb(I2
I0
I0
tp2579
sg1
(g2
g3
Ntp2580
Rp2581
(dp2582
g7
S'25'
p2583
sg9
g10
sg11
g12
sb(I36
I0
I0
tp2584
sg1
(g2
g3
Ntp2585
Rp2586
(dp2587
g7
g106
sg9
g30
sg11
S'19'
p2588
sb(I0
I0
I1276
tp2589
sg1
(g2
g3
Ntp2590
Rp2591
(dp2592
g7
g17
sg9
g18
sg11
S'10'
p2593
sb(I0
I0
I20
tp2594
sg1
(g2
g3
Ntp2595
Rp2596
(dp2597
g7
g95
sg9
g30
sg11
g17
sb(I0
I0
I2
tp2598
sg1
(g2
g3
Ntp2599
Rp2600
(dp2601
g7
g106
sg9
g25
sg11
S'19'
p2602
sb(I0
I0
I257
tp2603
sg1
(g2
g3
Ntp2604
Rp2605
(dp2606
g7
g36
sg9
g18
sg11
g63
sb(I0
I0
I23
tp2607
sg1
(g2
g3
Ntp2608
Rp2609
(dp2610
g7
g17
sg9
g10
sg11
S'10'
p2611
sb(I3
I1
I1
tp2612
sg1
(g2
g3
Ntp2613
Rp2614
(dp2615
g7
g12
sg9
g10
sg11
S'28'
p2616
sb(I0
I24
I0
tp2617
sg1
(g2
g3
Ntp2618
Rp2619
(dp2620
g7
S'23'
p2621
sg9
g10
sg11
S'11'
p2622
sb(I214
I0
I0
tp2623
sg1
(g2
g3
Ntp2624
Rp2625
(dp2626
g7
g95
sg9
g25
sg11
g106
sb(I0
I0
I28
tp2627
sg1
(g2
g3
Ntp2628
Rp2629
(dp2630
g7
S'19'
p2631
sg9
g10
sg11
S'16'
p2632
sb(I0
I1309
I0
tp2633
sg1
(g2
g3
Ntp2634
Rp2635
(dp2636
g7
g95
sg9
g25
sg11
S'10'
p2637
sb(I0
I0
I187
tp2638
sg1
(g2
g3
Ntp2639
Rp2640
(dp2641
g7
g36
sg9
g25
sg11
g95
sb(I0
I0
I130
tp2642
sg1
(g2
g3
Ntp2643
Rp2644
(dp2645
g7
g78
sg9
g10
sg11
g106
sbg275
sg1
(g2
g3
Ntp2646
Rp2647
(dp2648
g7
S'26'
p2649
sg9
g10
sg11
g78
sb(I16
I0
I0
tp2650
sg1
(g2
g3
Ntp2651
Rp2652
(dp2653
g7
g95
sg9
g30
sg11
S'10'
p2654
sb(I0
I0
I373
tp2655
sg1
(g2
g3
Ntp2656
Rp2657
(dp2658
g7
g36
sg9
g10
sg11
S'21'
p2659
sb(I21
I2
I0
tp2660
sg1
(g2
g3
Ntp2661
Rp2662
(dp2663
g7
g78
sg9
g18
sg11
g106
sb(I0
I0
I27
tp2664
sg1
(g2
g3
Ntp2665
Rp2666
(dp2667
g7
g78
sg9
g10
sg11
S'16'
p2668
sb(I4
I14
I1
tp2669
sg1
(g2
g3
Ntp2670
Rp2671
(dp2672
g7
g95
sg9
g30
sg11
g106
sb(I0
I0
I33
tp2673
sg1
(g2
g3
Ntp2674
Rp2675
(dp2676
g7
g106
sg9
g25
sg11
g63
sb(I0
I0
I78
tp2677
sg1
(g2
g3
Ntp2678
Rp2679
(dp2680
g7
g36
sg9
g30
sg11
S'19'
p2681
sb(I0
I0
I1171
tp2682
sg1
(g2
g3
Ntp2683
Rp2684
(dp2685
g7
g95
sg9
g18
sg11
S'10'
p2686
sb(I0
I0
I21
tp2687
sg1
(g2
g3
Ntp2688
Rp2689
(dp2690
g7
g95
sg9
g18
sg11
g106
sb(I0
I0
I22
tp2691
sg1
(g2
g3
Ntp2692
Rp2693
(dp2694
g7
S'17'
p2695
sg9
g10
sg11
S'25'
p2696
sb(I2
I1780
I0
tp2697
sg1
(g2
g3
Ntp2698
Rp2699
(dp2700
g7
S'20'
p2701
sg9
g10
sg11
S'13'
p2702
sb(I0
I1545
I0
tp2703
sg1
(g2
g3
Ntp2704
Rp2705
(dp2706
g7
g95
sg9
g10
sg11
S'10'
p2707
sb(I1
I3
I0
tp2708
sg1
(g2
g3
Ntp2709
Rp2710
(dp2711
g7
g36
sg9
g30
sg11
S'21'
p2712
sb(I0
I0
I1211
tp2713
sg1
(g2
g3
Ntp2714
Rp2715
(dp2716
g7
S'26'
p2717
sg9
g10
sg11
g17
sbg1596
sg1
(g2
g3
Ntp2718
Rp2719
(dp2720
g7
g36
sg9
g30
sg11
g95
sb(I0
I0
I267
tp2721
sg1
(g2
g3
Ntp2722
Rp2723
(dp2724
g7
g36
sg9
g25
sg11
S'19'
p2725
sb(I0
I0
I282
tp2726
sg1
(g2
g3
Ntp2727
Rp2728
(dp2729
g7
S'25'
p2730
sg9
g10
sg11
S'13'
p2731
sb(I424
I0
I0
tp2732
sg1
(g2
g3
Ntp2733
Rp2734
(dp2735
g7
g57
sg9
g10
sg11
S'18'
p2736
sb(I11
I9
I4
tp2737
sg1
(g2
g3
Ntp2738
Rp2739
(dp2740
g7
S'11'
p2741
sg9
g30
sg11
g78
sb(I0
I0
I30
tp2742
sg1
(g2
g3
Ntp2743
Rp2744
(dp2745
g7
g106
sg9
g25
sg11
S'18'
p2746
sb(I0
I0
I295
tp2747
sg1
(g2
g3
Ntp2748
Rp2749
(dp2750
g7
S'19'
p2751
sg9
g10
sg11
S'29'
p2752
sb(I0
I952
I0
tp2753
sg1
(g2
g3
Ntp2754
Rp2755
(dp2756
g7
g106
sg9
g30
sg11
S'18'
p2757
sb(I0
I0
I1118
tp2758
sg1
(g2
g3
Ntp2759
Rp2760
(dp2761
g7
g36
sg9
g30
sg11
S'16'
p2762
sb(I0
I0
I1102
tp2763
sg1
(g2
g3
Ntp2764
Rp2765
(dp2766
g7
S'21'
p2767
sg9
g10
sg11
S'14'
p2768
sb(I0
I994
I0
tp2769
sg1
(g2
g3
Ntp2770
Rp2771
(dp2772
g7
g78
sg9
g10
sg11
S'10'
p2773
sb(I1
I4
I0
tp2774
sg1
(g2
g3
Ntp2775
Rp2776
(dp2777
g7
g57
sg9
g30
sg11
S'18'
p2778
sb(I0
I0
I1177
tp2779
sg1
(g2
g3
Ntp2780
Rp2781
(dp2782
g7
g78
sg9
g30
sg11
g17
sb(I0
I0
I4
tp2783
sg1
(g2
g3
Ntp2784
Rp2785
(dp2786
g7
g36
sg9
g18
sg11
S'16'
p2787
sb(I0
I0
I22
tp2788
sg1
(g2
g3
Ntp2789
Rp2790
(dp2791
g7
g17
sg9
g18
sg11
g106
sb(I0
I0
I21
tp2792
sg1
(g2
g3
Ntp2793
Rp2794
(dp2795
g7
g57
sg9
g10
sg11
g63
sb(I1
I1
I0
tp2796
sg1
(g2
g3
Ntp2797
Rp2798
(dp2799
g7
g12
sg9
g10
sg11
S'24'
p2800
sb(I0
I33
I0
tp2801
sg1
(g2
g3
Ntp2802
Rp2803
(dp2804
g7
g36
sg9
g10
sg11
S'16'
p2805
sb(I6
I28
I0
tp2806
sg1
(g2
g3
Ntp2807
Rp2808
(dp2809
g7
g57
sg9
g25
sg11
S'18'
p2810
sb(I0
I0
I277
tp2811
sg1
(g2
g3
Ntp2812
Rp2813
(dp2814
g7
S'18'
p2815
sg9
g10
sg11
S'18'
p2816
sb(I0
I1401
I0
tp2817
sg1
(g2
g3
Ntp2818
Rp2819
(dp2820
g7
S'11'
p2821
sg9
g10
sg11
S'29'
p2822
sb(I0
I29
I0
tp2823
sg1
(g2
g3
Ntp2824
Rp2825
(dp2826
g7
S'19'
p2827
sg9
g10
sg11
S'23'
p2828
sb(I0
I1976
I0
tp2829
sg1
(g2
g3
Ntp2830
Rp2831
(dp2832
g7
S'11'
p2833
sg9
g25
sg11
S'21'
p2834
sb(I0
I0
I188
tp2835
sg1
(g2
g3
Ntp2836
Rp2837
(dp2838
g7
S'21'
p2839
sg9
g10
sg11
S'13'
p2840
sb(I0
I1116
I0
tp2841
sg1
(g2
g3
Ntp2842
Rp2843
(dp2844
g7
S'11'
p2845
sg9
g30
sg11
S'21'
p2846
sb(I0
I0
I1246
tp2847
sg1
(g2
g3
Ntp2848
Rp2849
(dp2850
g7
g63
sg9
g10
sg11
S'26'
p2851
sb(I0
I31
I0
tp2852
sg1
(g2
g3
Ntp2853
Rp2854
(dp2855
g7
S'25'
p2856
sg9
g10
sg11
S'14'
p2857
sb(I442
I0
I0
tp2858
sg1
(g2
g3
Ntp2859
Rp2860
(dp2861
g7
S'18'
p2862
sg9
g10
sg11
S'22'
p2863
sb(I0
I2260
I0
tp2864
sg1
(g2
g3
Ntp2865
Rp2866
(dp2867
g7
S'20'
p2868
sg9
g10
sg11
S'28'
p2869
sb(I0
I1404
I0
tp2870
sg1
(g2
g3
Ntp2871
Rp2872
(dp2873
g7
g63
sg9
g30
sg11
g36
sb(I0
I0
I267
tp2874
sg1
(g2
g3
Ntp2875
Rp2876
(dp2877
g7
g63
sg9
g10
sg11
S'29'
p2878
sb(I0
I20
I0
tp2879
sg1
(g2
g3
Ntp2880
Rp2881
(dp2882
g7
g78
sg9
g25
sg11
g95
sb(I0
I0
I97
tp2883
sg1
(g2
g3
Ntp2884
Rp2885
(dp2886
g7
g17
sg9
g10
sg11
S'12'
p2887
sb(I5
I12
I0
tp2888
sg1
(g2
g3
Ntp2889
Rp2890
(dp2891
g7
g63
sg9
g18
sg11
g36
sb(I0
I0
I22
tp2892
sg1
(g2
g3
Ntp2893
Rp2894
(dp2895
g7
g57
sg9
g10
sg11
S'15'
p2896
sb(I3
I13
I0
tp2897
sg1
(g2
g3
Ntp2898
Rp2899
(dp2900
g7
S'25'
p2901
sg9
g10
sg11
g36
sb(I104
I0
I0
tp2902
sg1
(g2
g3
Ntp2903
Rp2904
(dp2905
g7
g57
sg9
g18
sg11
S'16'
p2906
sb(I0
I0
I23
tp2907
sg1
(g2
g3
Ntp2908
Rp2909
(dp2910
g7
S'11'
p2911
sg9
g10
sg11
S'21'
p2912
sb(I22
I10
I2
tp2913
sg1
(g2
g3
Ntp2914
Rp2915
(dp2916
g7
g12
sg9
g30
sg11
g12
sb(I0
I0
I112
tp2917
sg1
(g2
g3
Ntp2918
Rp2919
(dp2920
g7
g63
sg9
g10
sg11
g36
sb(I4
I2
I0
tp2921
sg1
(g2
g3
Ntp2922
Rp2923
(dp2924
g7
S'19'
p2925
sg9
g10
sg11
S'22'
p2926
sb(I0
I2167
I0
tp2927
sg1
(g2
g3
Ntp2928
Rp2929
(dp2930
g7
S'17'
p2931
sg9
g10
sg11
g57
sb(I0
I351
I0
tp2932
sg1
(g2
g3
Ntp2933
Rp2934
(dp2935
g7
g106
sg9
g25
sg11
S'16'
p2936
sb(I0
I0
I315
tp2937
sg1
(g2
g3
Ntp2938
Rp2939
(dp2940
g7
S'22'
p2941
sg9
g10
sg11
S'31'
p2942
sb(I0
I198
I0
tp2943
sg1
(g2
g3
Ntp2944
Rp2945
(dp2946
g7
S'26'
p2947
sg9
g10
sg11
g95
sb(I62
I0
I0
tp2948
sg1
(g2
g3
Ntp2949
Rp2950
(dp2951
g7
g106
sg9
g30
sg11
S'16'
p2952
sb(I0
I0
I1161
tp2953
sg1
(g2
g3
Ntp2954
Rp2955
(dp2956
g7
g106
sg9
g18
sg11
S'16'
p2957
sb(I0
I0
I25
tp2958
sg1
(g2
g3
Ntp2959
Rp2960
(dp2961
g7
S'17'
p2962
sg9
g10
sg11
S'15'
p2963
sb(I0
I1339
I0
tp2964
sg1
(g2
g3
Ntp2965
Rp2966
(dp2967
g7
S'21'
p2968
sg9
g10
sg11
g57
sb(I0
I311
I0
tp2969
sg1
(g2
g3
Ntp2970
Rp2971
(dp2972
g7
g63
sg9
g30
sg11
S'21'
p2973
sb(I0
I0
I1253
tp2974
sg1
(g2
g3
Ntp2975
Rp2976
(dp2977
g7
g106
sg9
g10
sg11
S'16'
p2978
sb(I9
I21
I1
tp2979
sg1
(g2
g3
Ntp2980
Rp2981
(dp2982
g7
S'17'
p2983
sg9
g10
sg11
S'28'
p2984
sb(I0
I1194
I0
tp2985
sg1
(g2
g3
Ntp2986
Rp2987
(dp2988
g7
g12
sg9
g10
sg11
S'30'
p2989
sb(I0
I41
I0
tp2990
sg1
(g2
g3
Ntp2991
Rp2992
(dp2993
g7
g57
sg9
g18
sg11
S'10'
p2994
sb(I0
I0
I30
tp2995
sg1
(g2
g3
Ntp2996
Rp2997
(dp2998
g7
S'22'
p2999
sg9
g10
sg11
g95
sb(I112
I0
I0
tp3000
sg1
(g2
g3
Ntp3001
Rp3002
(dp3003
g7
S'10'
p3004
sg9
g10
sg11
S'22'
p3005
sb(I0
I176
I0
tp3006
sg1
(g2
g3
Ntp3007
Rp3008
(dp3009
g7
g12
sg9
g10
sg11
S'18'
p3010
sb(I10
I7
I2
tp3011
sg1
(g2
g3
Ntp3012
Rp3013
(dp3014
g7
g57
sg9
g10
sg11
S'10'
p3015
sb(I3
I5
I0
tp3016
sg1
(g2
g3
Ntp3017
Rp3018
(dp3019
g7
g78
sg9
g10
sg11
S'29'
p3020
sb(I0
I25
I0
tp3021
sg1
(g2
g3
Ntp3022
Rp3023
(dp3024
g7
g12
sg9
g18
sg11
S'18'
p3025
sb(I0
I0
I19
tp3026
sg1
(g2
g3
Ntp3027
Rp3028
(dp3029
g7
S'21'
p3030
sg9
g10
sg11
g36
sb(I0
I236
I0
tp3031
sg1
(g2
g3
Ntp3032
Rp3033
(dp3034
g7
g12
sg9
g30
sg11
S'18'
p3035
sb(I0
I0
I1135
tp3036
sg1
(g2
g3
Ntp3037
Rp3038
(dp3039
g7
g63
sg9
g25
sg11
S'10'
p3040
sb(I0
I0
I189
tp3041
sg1
(g2
g3
Ntp3042
Rp3043
(dp3044
g7
g57
sg9
g30
sg11
S'10'
p3045
sb(I0
I0
I387
tp3046
sg1
(g2
g3
Ntp3047
Rp3048
(dp3049
g7
g95
sg9
g10
sg11
S'28'
p3050
sb(I0
I25
I0
tp3051
sg1
(g2
g3
Ntp3052
Rp3053
(dp3054
g7
g57
sg9
g10
sg11
S'27'
p3055
sb(I0
I31
I0
tp3056
sg1
(g2
g3
Ntp3057
Rp3058
(dp3059
g7
g57
sg9
g30
sg11
S'14'
p3060
sb(I0
I0
I1126
tp3061
sg1
(g2
g3
Ntp3062
Rp3063
(dp3064
g7
g95
sg9
g30
sg11
g36
sb(I0
I0
I243
tp3065
sg1
(g2
g3
Ntp3066
Rp3067
(dp3068
g7
S'22'
p3069
sg9
g10
sg11
g78
sb(I30
I0
I0
tp3070
sg1
(g2
g3
Ntp3071
Rp3072
(dp3073
g7
S'17'
p3074
sg9
g10
sg11
g78
sb(I0
I44
I0
tp3075
sg1
(g2
g3
Ntp3076
Rp3077
(dp3078
g7
S'25'
p3079
sg9
g10
sg11
S'19'
p3080
sb(I461
I0
I0
tp3081
sg1
(g2
g3
Ntp3082
Rp3083
(dp3084
g7
S'19'
p3085
sg9
g10
sg11
S'18'
p3086
sb(I0
I1365
I0
tp3087
sg1
(g2
g3
Ntp3088
Rp3089
(dp3090
g7
g95
sg9
g25
sg11
g36
sb(I0
I0
I113
tp3091
sg1
(g2
g3
Ntp3092
Rp3093
(dp3094
g7
S'19'
p3095
sg9
g10
sg11
g57
sb(I0
I322
I0
tp3096
sg1
(g2
g3
Ntp3097
Rp3098
(dp3099
g7
g57
sg9
g10
sg11
S'22'
p3100
sb(I0
I56
I0
tp3101
sg1
(g2
g3
Ntp3102
Rp3103
(dp3104
g7
g95
sg9
g10
sg11
g36
sbg1596
sg1
(g2
g3
Ntp3105
Rp3106
(dp3107
g7
g95
sg9
g10
sg11
S'24'
p3108
sb(I0
I35
I0
tp3109
sg1
(g2
g3
Ntp3110
Rp3111
(dp3112
g7
S'10'
p3113
sg9
g18
sg11
g63
sb(I0
I0
I87
tp3114
sg1
(g2
g3
Ntp3115
Rp3116
(dp3117
g7
g95
sg9
g10
sg11
S'30'
p3118
sb(I0
I38
I0
tp3119
sg1
(g2
g3
Ntp3120
Rp3121
(dp3122
g7
g95
sg9
g18
sg11
g36
sb(I0
I0
I25
tp3123
sg1
(g2
g3
Ntp3124
Rp3125
(dp3126
g7
S'10'
p3127
sg9
g10
sg11
g63
sb(I0
I5
I0
tp3128
sg1
(g2
g3
Ntp3129
Rp3130
(dp3131
g7
S'21'
p3132
sg9
g10
sg11
S'11'
p3133
sb(I0
I439
I0
tp3134
sg1
(g2
g3
Ntp3135
Rp3136
(dp3137
g7
g63
sg9
g25
sg11
g57
sb(I0
I0
I159
tp3138
sg1
(g2
g3
Ntp3139
Rp3140
(dp3141
g7
S'20'
p3142
sg9
g10
sg11
S'27'
p3143
sb(I0
I1689
I0
tp3144
sg1
(g2
g3
Ntp3145
Rp3146
(dp3147
g7
g63
sg9
g10
sg11
S'21'
p3148
sb(I26
I1
I2
tp3149
sg1
(g2
g3
Ntp3150
Rp3151
(dp3152
g7
S'25'
p3153
sg9
g10
sg11
S'31'
p3154
sb(I1
I131
I0
tp3155
sg1
(g2
g3
Ntp3156
Rp3157
(dp3158
g7
S'18'
p3159
sg9
g10
sg11
S'24'
p3160
sb(I0
I1896
I0
tp3161
sg1
(g2
g3
Ntp3162
Rp3163
(dp3164
g7
g78
sg9
g30
sg11
g106
sb(I0
I0
I31
tp3165
sg1
(g2
g3
Ntp3166
Rp3167
(dp3168
g7
g17
sg9
g10
sg11
S'27'
p3169
sb(I0
I28
I0
tp3170
sg1
(g2
g3
Ntp3171
Rp3172
(dp3173
g7
g63
sg9
g25
sg11
S'21'
p3174
sb(I0
I0
I200
tp3175
sg1
(g2
g3
Ntp3176
Rp3177
(dp3178
g7
S'24'
p3179
sg9
g10
sg11
S'14'
p3180
sb(I511
I0
I0
tp3181
sg1
(g2
g3
Ntp3182
Rp3183
(dp3184
g7
g12
sg9
g10
sg11
S'29'
p3185
sb(I0
I30
I0
tp3186
sg1
(g2
g3
Ntp3187
Rp3188
(dp3189
g7
g63
sg9
g30
sg11
g57
sb(I0
I0
I353
tp3190
sg1
(g2
g3
Ntp3191
Rp3192
(dp3193
g7
S'18'
p3194
sg9
g10
sg11
S'23'
p3195
sb(I0
I2045
I0
tp3196
sg1
(g2
g3
Ntp3197
Rp3198
(dp3199
g7
g17
sg9
g10
sg11
S'23'
p3200
sb(I0
I43
I0
tp3201
sg1
(g2
g3
Ntp3202
Rp3203
(dp3204
g7
g12
sg9
g25
sg11
S'16'
p3205
sb(I0
I0
I323
tp3206
sg1
(g2
g3
Ntp3207
Rp3208
(dp3209
g7
g78
sg9
g10
sg11
g36
sb(I2
I5
I1
tp3210
sg1
(g2
g3
Ntp3211
Rp3212
(dp3213
g7
S'25'
p3214
sg9
g10
sg11
S'11'
p3215
sb(I191
I0
I0
tp3216
sg1
(g2
g3
Ntp3217
Rp3218
(dp3219
g7
S'11'
p3220
sg9
g10
sg11
S'18'
p3221
sb(I8
I18
I0
tp3222
sg1
(g2
g3
Ntp3223
Rp3224
(dp3225
g7
g57
sg9
g10
sg11
S'13'
p3226
sb(I9
I12
I0
tp3227
sg1
(g2
g3
Ntp3228
Rp3229
(dp3230
g7
g78
sg9
g18
sg11
g36
sb(I0
I0
I26
tp3231
sg1
(g2
g3
Ntp3232
Rp3233
(dp3234
g7
S'21'
p3235
sg9
g10
sg11
g17
sb(I0
I2
I0
tp3236
sg1
(g2
g3
Ntp3237
Rp3238
(dp3239
g7
g12
sg9
g30
sg11
S'16'
p3240
sb(I0
I0
I1133
tp3241
sg1
(g2
g3
Ntp3242
Rp3243
(dp3244
g7
S'11'
p3245
sg9
g18
sg11
S'18'
p3246
sb(I0
I0
I23
tp3247
sg1
(g2
g3
Ntp3248
Rp3249
(dp3250
g7
g78
sg9
g30
sg11
g36
sb(I0
I0
I262
tp3251
sg1
(g2
g3
Ntp3252
Rp3253
(dp3254
g7
S'11'
p3255
sg9
g30
sg11
S'18'
p3256
sb(I0
I0
I1131
tp3257
sg1
(g2
g3
Ntp3258
Rp3259
(dp3260
g7
g17
sg9
g30
sg11
g12
sb(I0
I0
I100
tp3261
sg1
(g2
g3
Ntp3262
Rp3263
(dp3264
g7
g12
sg9
g18
sg11
S'16'
p3265
sb(I0
I0
I21
tp3266
sg1
(g2
g3
Ntp3267
Rp3268
(dp3269
g7
S'11'
p3270
sg9
g25
sg11
S'18'
p3271
sb(I0
I0
I276
tp3272
sg1
(g2
g3
Ntp3273
Rp3274
(dp3275
g7
g12
sg9
g10
sg11
S'16'
p3276
sb(I3
I13
I2
tp3277
sg1
(g2
g3
Ntp3278
Rp3279
(dp3280
g7
S'21'
p3281
sg9
g10
sg11
g106
sb(I0
I48
I0
tp3282
sg1
(g2
g3
Ntp3283
Rp3284
(dp3285
g7
g78
sg9
g25
sg11
g36
sb(I0
I0
I112
tp3286
sg1
(g2
g3
Ntp3287
Rp3288
(dp3289
g7
S'21'
p3290
sg9
g10
sg11
g78
sb(I0
I37
I0
tp3291
sg1
(g2
g3
Ntp3292
Rp3293
(dp3294
g7
g57
sg9
g10
sg11
S'16'
p3295
sb(I11
I15
I1
tp3296
sg1
(g2
g3
Ntp3297
Rp3298
(dp3299
g7
g12
sg9
g25
sg11
S'10'
p3300
sb(I0
I0
I168
tp3301
sg1
(g2
g3
Ntp3302
Rp3303
(dp3304
g7
g36
sg9
g25
sg11
S'10'
p3305
sb(I0
I0
I157
tp3306
sg1
(g2
g3
Ntp3307
Rp3308
(dp3309
g7
S'21'
p3310
sg9
g10
sg11
S'19'
p3311
sb(I0
I1228
I0
tp3312
sg1
(g2
g3
Ntp3313
Rp3314
(dp3315
g7
S'23'
p3316
sg9
g10
sg11
g95
sb(I91
I0
I0
tp3317
sg1
(g2
g3
Ntp3318
Rp3319
(dp3320
g7
g57
sg9
g30
sg11
S'15'
p3321
sb(I0
I0
I1172
tp3322
sg1
(g2
g3
Ntp3323
Rp3324
(dp3325
g7
g12
sg9
g30
sg11
S'10'
p3326
sb(I0
I0
I372
tp3327
sg1
(g2
g3
Ntp3328
Rp3329
(dp3330
g7
g36
sg9
g30
sg11
S'10'
p3331
sb(I0
I0
I357
tp3332
sg1
(g2
g3
Ntp3333
Rp3334
(dp3335
g7
g57
sg9
g30
sg11
S'16'
p3336
sb(I0
I0
I1144
tp3337
sg1
(g2
g3
Ntp3338
Rp3339
(dp3340
g7
S'18'
p3341
sg9
g10
sg11
g63
sb(I0
I147
I0
tp3342
sg1
(g2
g3
Ntp3343
Rp3344
(dp3345
g7
g12
sg9
g18
sg11
S'10'
p3346
sb(I0
I0
I16
tp3347
sg1
(g2
g3
Ntp3348
Rp3349
(dp3350
g7
S'10'
p3351
sg9
g10
sg11
S'13'
p3352
sb(I11
I51
I3
tp3353
sg1
(g2
g3
Ntp3354
Rp3355
(dp3356
g7
g17
sg9
g10
sg11
S'24'
p3357
sb(I0
I32
I0
tp3358
sg1
(g2
g3
Ntp3359
Rp3360
(dp3361
g7
S'25'
p3362
sg9
g10
sg11
g106
sb(I26
I0
I0
tp3363
sg1
(g2
g3
Ntp3364
Rp3365
(dp3366
g7
g57
sg9
g25
sg11
S'16'
p3367
sb(I0
I0
I370
tp3368
sg1
(g2
g3
Ntp3369
Rp3370
(dp3371
g7
S'20'
p3372
sg9
g10
sg11
S'14'
p3373
sb(I0
I1584
I0
tp3374
sg1
(g2
g3
Ntp3375
Rp3376
(dp3377
g7
g36
sg9
g10
sg11
S'10'
p3378
sb(I0
I3
I0
tp3379
sg1
(g2
g3
Ntp3380
Rp3381
(dp3382
g7
S'22'
p3383
sg9
g10
sg11
S'10'
p3384
sb(I226
I0
I0
tp3385
sg1
(g2
g3
Ntp3386
Rp3387
(dp3388
g7
S'17'
p3389
sg9
g10
sg11
S'29'
p3390
sb(I0
I1052
I0
tp3391
sg1
(g2
g3
Ntp3392
Rp3393
(dp3394
g7
S'24'
p3395
sg9
g10
sg11
S'19'
p3396
sb(I549
I0
I0
tp3397
sg1
(g2
g3
Ntp3398
Rp3399
(dp3400
g7
g36
sg9
g18
sg11
S'10'
p3401
sb(I0
I0
I18
tp3402
sg1
(g2
g3
Ntp3403
Rp3404
(dp3405
g7
S'18'
p3406
sg9
g10
sg11
g17
sb(I0
I3
I0
tp3407
sg1
(g2
g3
Ntp3408
Rp3409
(dp3410
g7
g36
sg9
g10
sg11
g12
sbg275
sg1
(g2
g3
Ntp3411
Rp3412
(dp3413
g7
S'10'
p3414
sg9
g30
sg11
S'15'
p3415
sb(I0
I0
I4540
tp3416
sg1
(g2
g3
Ntp3417
Rp3418
(dp3419
g7
S'23'
p3420
sg9
g10
sg11
g36
sb(I128
I0
I0
tp3421
sg1
(g2
g3
Ntp3422
Rp3423
(dp3424
g7
S'18'
p3425
sg9
g10
sg11
g57
sb(I0
I351
I0
tp3426
sg1
(g2
g3
Ntp3427
Rp3428
(dp3429
g7
S'10'
p3430
sg9
g10
sg11
S'24'
p3431
sb(I0
I157
I0
tp3432
sg1
(g2
g3
Ntp3433
Rp3434
(dp3435
g7
g78
sg9
g10
sg11
S'25'
p3436
sb(I0
I46
I0
tp3437
sg1
(g2
g3
Ntp3438
Rp3439
(dp3440
g7
S'20'
p3441
sg9
g10
sg11
S'11'
p3442
sb(I0
I661
I0
tp3443
sg1
(g2
g3
Ntp3444
Rp3445
(dp3446
g7
S'17'
p3447
sg9
g10
sg11
S'21'
p3448
sb(I1692
I0
I0
tp3449
sg1
(g2
g3
Ntp3450
Rp3451
(dp3452
g7
g106
sg9
g10
sg11
S'20'
p3453
sb(I39
I11
I1
tp3454
sg1
(g2
g3
Ntp3455
Rp3456
(dp3457
g7
S'10'
p3458
sg9
g25
sg11
S'15'
p3459
sb(I0
I0
I1381
tp3460
sg1
(g2
g3
Ntp3461
Rp3462
(dp3463
g7
g57
sg9
g10
sg11
g36
sb(I0
I2
I0
tp3464
sg1
(g2
g3
Ntp3465
Rp3466
(dp3467
g7
g63
sg9
g10
sg11
g57
sb(I1
I2
I0
tp3468
sg1
(g2
g3
Ntp3469
Rp3470
(dp3471
g7
g12
sg9
g10
sg11
S'17'
p3472
sb(I7
I8
I0
tp3473
sg1
(g2
g3
Ntp3474
Rp3475
(dp3476
g7
g63
sg9
g10
sg11
g12
sb(I1
I2
I0
tp3477
sg1
(g2
g3
Ntp3478
Rp3479
(dp3480
g7
S'22'
p3481
sg9
g10
sg11
S'28'
p3482
sb(I0
I617
I0
tp3483
sg1
(g2
g3
Ntp3484
Rp3485
(dp3486
g7
g36
sg9
g10
sg11
S'17'
p3487
sb(I9
I21
I0
tp3488
sg1
(g2
g3
Ntp3489
Rp3490
(dp3491
g7
S'19'
p3492
sg9
g10
sg11
S'24'
p3493
sb(I1
I1820
I0
tp3494
sg1
(g2
g3
Ntp3495
Rp3496
(dp3497
g7
g57
sg9
g18
sg11
g36
sb(I0
I0
I18
tp3498
sg1
(g2
g3
Ntp3499
Rp3500
(dp3501
g7
S'21'
p3502
sg9
g10
sg11
S'31'
p3503
sb(I0
I369
I0
tp3504
sg1
(g2
g3
Ntp3505
Rp3506
(dp3507
g7
g78
sg9
g10
sg11
S'30'
p3508
sb(I0
I47
I0
tp3509
sg1
(g2
g3
Ntp3510
Rp3511
(dp3512
g7
g57
sg9
g30
sg11
g36
sb(I0
I0
I260
tp3513
sg1
(g2
g3
Ntp3514
Rp3515
(dp3516
g7
S'11'
p3517
sg9
g10
sg11
g36
sb(I0
I3
I0
tp3518
sg1
(g2
g3
Ntp3519
Rp3520
(dp3521
g7
g36
sg9
g25
sg11
S'17'
p3522
sb(I0
I0
I321
tp3523
sg1
(g2
g3
Ntp3524
Rp3525
(dp3526
g7
S'26'
p3527
sg9
g10
sg11
g12
sb(I27
I0
I0
tp3528
sg1
(g2
g3
Ntp3529
Rp3530
(dp3531
g7
g63
sg9
g30
sg11
g12
sb(I0
I0
I106
tp3532
sg1
(g2
g3
Ntp3533
Rp3534
(dp3535
g7
g36
sg9
g30
sg11
S'17'
p3536
sb(I0
I0
I1162
tp3537
sg1
(g2
g3
Ntp3538
Rp3539
(dp3540
g7
g63
sg9
g25
sg11
g12
sb(I0
I0
I52
tp3541
sg1
(g2
g3
Ntp3542
Rp3543
(dp3544
g7
g12
sg9
g30
sg11
g17
sb(I0
I0
I2
tp3545
sg1
(g2
g3
Ntp3546
Rp3547
(dp3548
g7
g57
sg9
g25
sg11
g36
sb(I0
I0
I130
tp3549
sg1
(g2
g3
Ntp3550
Rp3551
(dp3552
g7
S'19'
p3553
sg9
g10
sg11
g78
sb(I0
I40
I0
tp3554
sg1
(g2
g3
Ntp3555
Rp3556
(dp3557
g7
S'20'
p3558
sg9
g10
sg11
S'31'
p3559
sb(I0
I516
I0
tp3560
sg1
(g2
g3
Ntp3561
Rp3562
(dp3563
g7
S'21'
p3564
sg9
g10
sg11
S'17'
p3565
sb(I0
I1154
I0
tp3566
sg1
(g2
g3
Ntp3567
Rp3568
(dp3569
g7
g17
sg9
g25
sg11
S'13'
p3570
sb(I0
I0
I409
tp3571
sg1
(g2
g3
Ntp3572
Rp3573
(dp3574
g7
g106
sg9
g30
sg11
S'17'
p3575
sb(I0
I0
I1166
tp3576
sg1
(g2
g3
Ntp3577
Rp3578
(dp3579
g7
g63
sg9
g10
sg11
S'28'
p3580
sb(I0
I20
I0
tp3581
sg1
(g2
g3
Ntp3582
Rp3583
(dp3584
g7
g17
sg9
g30
sg11
g36
sb(I0
I0
I226
tp3585
sg1
(g2
g3
Ntp3586
Rp3587
(dp3588
g7
g12
sg9
g10
sg11
g106
sb(I1
I2
I0
tp3589
sg1
(g2
g3
Ntp3590
Rp3591
(dp3592
g7
g106
sg9
g25
sg11
S'17'
p3593
sb(I0
I0
I312
tp3594
sg1
(g2
g3
Ntp3595
Rp3596
(dp3597
g7
g17
sg9
g25
sg11
g36
sb(I0
I0
I116
tp3598
sg1
(g2
g3
Ntp3599
Rp3600
(dp3601
g7
S'24'
p3602
sg9
g10
sg11
S'27'
p3603
sb(I0
I576
I0
tp3604
sg1
(g2
g3
Ntp3605
Rp3606
(dp3607
g7
g17
sg9
g30
sg11
S'13'
p3608
sb(I0
I0
I1072
tp3609
sg1
(g2
g3
Ntp3610
Rp3611
(dp3612
g7
g95
sg9
g10
sg11
S'14'
p3613
sb(I4
I12
I0
tp3614
sg1
(g2
g3
Ntp3615
Rp3616
(dp3617
g7
S'11'
p3618
sg9
g10
sg11
S'22'
p3619
sb(I0
I46
I0
tp3620
sg1
(g2
g3
Ntp3621
Rp3622
(dp3623
g7
g78
sg9
g30
sg11
S'21'
p3624
sb(I0
I0
I1231
tp3625
sg1
(g2
g3
Ntp3626
Rp3627
(dp3628
g7
S'19'
p3629
sg9
g10
sg11
S'12'
p3630
sb(I0
I988
I0
tp3631
sg1
(g2
g3
Ntp3632
Rp3633
(dp3634
g7
S'11'
p3635
sg9
g30
sg11
g57
sb(I0
I0
I332
tp3636
sg1
(g2
g3
Ntp3637
Rp3638
(dp3639
g7
g17
sg9
g10
sg11
S'30'
p3640
sb(I0
I40
I0
tp3641
sg1
(g2
g3
Ntp3642
Rp3643
(dp3644
g7
g17
sg9
g18
sg11
g36
sb(I0
I0
I28
tp3645
sg1
(g2
g3
Ntp3646
Rp3647
(dp3648
g7
S'24'
p3649
sg9
g10
sg11
S'11'
p3650
sb(I221
I0
I0
tp3651
sg1
(g2
g3
Ntp3652
Rp3653
(dp3654
g7
S'10'
p3655
sg9
g18
sg11
S'12'
p3656
sb(I0
I0
I85
tp3657
sg1
(g2
g3
Ntp3658
Rp3659
(dp3660
g7
g57
sg9
g25
sg11
g63
sb(I0
I0
I64
tp3661
sg1
(g2
g3
Ntp3662
Rp3663
(dp3664
g7
S'23'
p3665
sg9
g10
sg11
S'13'
p3666
sb(I530
I0
I0
tp3667
sg1
(g2
g3
Ntp3668
Rp3669
(dp3670
g7
S'25'
p3671
sg9
g10
sg11
S'17'
p3672
sb(I490
I0
I0
tp3673
sg1
(g2
g3
Ntp3674
Rp3675
(dp3676
g7
g12
sg9
g30
sg11
S'15'
p3677
sb(I0
I0
I1062
tp3678
sg1
(g2
g3
Ntp3679
Rp3680
(dp3681
g7
S'10'
p3682
sg9
g10
sg11
S'12'
p3683
sb(I12
I51
I4
tp3684
sg1
(g2
g3
Ntp3685
Rp3686
(dp3687
g7
g12
sg9
g25
sg11
S'15'
p3688
sb(I0
I0
I359
tp3689
sg1
(g2
g3
Ntp3690
Rp3691
(dp3692
g7
g63
sg9
g10
sg11
S'15'
p3693
sb(I8
I15
I2
tp3694
sg1
(g2
g3
Ntp3695
Rp3696
(dp3697
g7
S'11'
p3698
sg9
g30
sg11
g63
sb(I0
I0
I139
tp3699
sg1
(g2
g3
Ntp3700
Rp3701
(dp3702
g7
g78
sg9
g30
sg11
S'18'
p3703
sb(I0
I0
I1156
tp3704
sg1
(g2
g3
Ntp3705
Rp3706
(dp3707
g7
S'10'
p3708
sg9
g25
sg11
g17
sb(I0
I0
I5
tp3709
sg1
(g2
g3
Ntp3710
Rp3711
(dp3712
g7
S'25'
p3713
sg9
g10
sg11
g95
sb(I76
I0
I0
tp3714
sg1
(g2
g3
Ntp3715
Rp3716
(dp3717
g7
g63
sg9
g10
sg11
S'14'
p3718
sb(I4
I12
I1
tp3719
sg1
(g2
g3
Ntp3720
Rp3721
(dp3722
g7
g12
sg9
g10
sg11
S'15'
p3723
sb(I7
I5
I0
tp3724
sg1
(g2
g3
Ntp3725
Rp3726
(dp3727
g7
S'10'
p3728
sg9
g25
sg11
S'12'
p3729
sb(I0
I0
I1580
tp3730
sg1
(g2
g3
Ntp3731
Rp3732
(dp3733
g7
S'19'
p3734
sg9
g10
sg11
g63
sb(I0
I139
I0
tp3735
sg1
(g2
g3
Ntp3736
Rp3737
(dp3738
g7
S'23'
p3739
sg9
g10
sg11
S'10'
p3740
sb(I178
I0
I0
tp3741
sg1
(g2
g3
Ntp3742
Rp3743
(dp3744
g7
S'10'
p3745
sg9
g30
sg11
S'12'
p3746
sb(I0
I0
I3959
tp3747
sg1
(g2
g3
Ntp3748
Rp3749
(dp3750
g7
S'11'
p3751
sg9
g25
sg11
g63
sb(I0
I0
I61
tp3752
sg1
(g2
g3
Ntp3753
Rp3754
(dp3755
g7
S'19'
p3756
sg9
g10
sg11
S'11'
p3757
sb(I0
I513
I0
tp3758
sg1
(g2
g3
Ntp3759
Rp3760
(dp3761
g7
S'10'
p3762
sg9
g30
sg11
g17
sb(I0
I0
I9
tp3763
sg1
(g2
g3
Ntp3764
Rp3765
(dp3766
g7
g12
sg9
g18
sg11
g106
sb(I0
I0
I26
tp3767
sg1
(g2
g3
Ntp3768
Rp3769
(dp3770
g7
g78
sg9
g25
sg11
S'20'
p3771
sb(I0
I0
I496
tp3772
sg1
(g2
g3
Ntp3773
Rp3774
(dp3775
g7
g78
sg9
g30
sg11
S'17'
p3776
sb(I0
I0
I1114
tp3777
sg1
(g2
g3
Ntp3778
Rp3779
(dp3780
g7
S'26'
p3781
sg9
g10
sg11
S'16'
p3782
sb(I386
I0
I0
tp3783
sg1
(g2
g3
Ntp3784
Rp3785
(dp3786
g7
g78
sg9
g30
sg11
S'20'
p3787
sb(I0
I0
I1355
tp3788
sg1
(g2
g3
Ntp3789
Rp3790
(dp3791
g7
g95
sg9
g18
sg11
S'16'
p3792
sb(I0
I0
I19
tp3793
sg1
(g2
g3
Ntp3794
Rp3795
(dp3796
g7
g78
sg9
g25
sg11
S'17'
p3797
sb(I0
I0
I313
tp3798
sg1
(g2
g3
Ntp3799
Rp3800
(dp3801
g7
S'10'
p3802
sg9
g10
sg11
S'31'
p3803
sb(I0
I31
I0
tp3804
sg1
(g2
g3
Ntp3805
Rp3806
(dp3807
g7
g17
sg9
g10
sg11
g95
sb(I2
I2
I0
tp3808
sg1
(g2
g3
Ntp3809
Rp3810
(dp3811
g7
g95
sg9
g30
sg11
S'16'
p3812
sb(I0
I0
I1055
tp3813
sg1
(g2
g3
Ntp3814
Rp3815
(dp3816
g7
g78
sg9
g18
sg11
S'20'
p3817
sb(I0
I0
I409
tp3818
sg1
(g2
g3
Ntp3819
Rp3820
(dp3821
g7
g78
sg9
g25
sg11
S'14'
p3822
sb(I0
I0
I413
tp3823
sg1
(g2
g3
Ntp3824
Rp3825
(dp3826
g7
g17
sg9
g10
sg11
S'11'
p3827
sb(I3
I2
I0
tp3828
sg1
(g2
g3
Ntp3829
Rp3830
(dp3831
g7
g78
sg9
g10
sg11
S'20'
p3832
sb(I38
I8
I1
tp3833
sg1
(g2
g3
Ntp3834
Rp3835
(dp3836
g7
g36
sg9
g25
sg11
g78
sb(I0
I0
I20
tp3837
sg1
(g2
g3
Ntp3838
Rp3839
(dp3840
g7
S'22'
p3841
sg9
g10
sg11
S'14'
p3842
sb(I624
I0
I0
tp3843
sg1
(g2
g3
Ntp3844
Rp3845
(dp3846
g7
S'22'
p3847
sg9
g10
sg11
S'19'
p3848
sb(I740
I0
I0
tp3849
sg1
(g2
g3
Ntp3850
Rp3851
(dp3852
g7
g95
sg9
g25
sg11
S'16'
p3853
sb(I0
I0
I320
tp3854
sg1
(g2
g3
Ntp3855
Rp3856
(dp3857
g7
S'22'
p3858
sg9
g10
sg11
g106
sb(I36
I0
I0
tp3859
sg1
(g2
g3
Ntp3860
Rp3861
(dp3862
g7
g12
sg9
g30
sg11
g106
sb(I0
I0
I28
tp3863
sg1
(g2
g3
Ntp3864
Rp3865
(dp3866
g7
g78
sg9
g10
sg11
g12
sbg275
sg1
(g2
g3
Ntp3867
Rp3868
(dp3869
g7
g12
sg9
g30
sg11
g36
sb(I0
I0
I219
tp3870
sg1
(g2
g3
Ntp3871
Rp3872
(dp3873
g7
g95
sg9
g25
sg11
S'15'
p3874
sb(I0
I0
I360
tp3875
sg1
(g2
g3
Ntp3876
Rp3877
(dp3878
g7
g57
sg9
g30
sg11
S'21'
p3879
sb(I0
I0
I1236
tp3880
sg1
(g2
g3
Ntp3881
Rp3882
(dp3883
g7
g12
sg9
g25
sg11
g36
sb(I0
I0
I119
tp3884
sg1
(g2
g3
Ntp3885
Rp3886
(dp3887
g7
g95
sg9
g30
sg11
S'15'
p3888
sb(I0
I0
I1114
tp3889
sg1
(g2
g3
Ntp3890
Rp3891
(dp3892
g7
g57
sg9
g25
sg11
S'21'
p3893
sb(I0
I0
I207
tp3894
sg1
(g2
g3
Ntp3895
Rp3896
(dp3897
g7
S'18'
p3898
sg9
g10
sg11
S'15'
p3899
sb(I0
I1326
I0
tp3900
sg1
(g2
g3
Ntp3901
Rp3902
(dp3903
g7
g36
sg9
g18
sg11
g36
sb(I0
I0
I20
tp3904
sg1
(g2
g3
Ntp3905
Rp3906
(dp3907
g7
g78
sg9
g30
sg11
g12
sb(I0
I0
I96
tp3908
sg1
(g2
g3
Ntp3909
Rp3910
(dp3911
g7
S'10'
p3912
sg9
g10
sg11
g17
sb(I1
I1
I0
tp3913
sg1
(g2
g3
Ntp3914
Rp3915
(dp3916
g7
g78
sg9
g25
sg11
g17
sb(I0
I0
I2
tp3917
sg1
(g2
g3
Ntp3918
Rp3919
(dp3920
g7
g36
sg9
g30
sg11
g36
sb(I0
I0
I265
tp3921
sg1
(g2
g3
Ntp3922
Rp3923
(dp3924
g7
g17
sg9
g25
sg11
S'15'
p3925
sb(I0
I0
I355
tp3926
sg1
(g2
g3
Ntp3927
Rp3928
(dp3929
g7
S'25'
p3930
sg9
g10
sg11
S'10'
p3931
sb(I151
I0
I0
tp3932
sg1
(g2
g3
Ntp3933
Rp3934
(dp3935
g7
g36
sg9
g25
sg11
g36
sb(I0
I0
I119
tp3936
sg1
(g2
g3
Ntp3937
Rp3938
(dp3939
g7
S'23'
p3940
sg9
g10
sg11
S'25'
p3941
sb(I1
I856
I0
tp3942
sg1
(g2
g3
Ntp3943
Rp3944
(dp3945
g7
g78
sg9
g25
sg11
g12
sb(I0
I0
I60
tp3946
sg1
(g2
g3
Ntp3947
Rp3948
(dp3949
g7
g12
sg9
g18
sg11
g36
sb(I0
I0
I25
tp3950
sg1
(g2
g3
Ntp3951
Rp3952
(dp3953
g7
S'23'
p3954
sg9
g10
sg11
g106
sb(I38
I0
I0
tp3955
sg1
(g2
g3
Ntp3956
Rp3957
(dp3958
g7
g78
sg9
g10
sg11
S'28'
p3959
sb(I0
I31
I0
tp3960
sg1
(g2
g3
Ntp3961
Rp3962
(dp3963
g7
g17
sg9
g10
sg11
S'31'
p3964
sb(I0
I5
I0
tp3965
sg1
(g2
g3
Ntp3966
Rp3967
(dp3968
g7
S'17'
p3969
sg9
g10
sg11
S'13'
p3970
sb(I0
I1272
I0
tp3971
sg1
(g2
g3
Ntp3972
Rp3973
(dp3974
g7
g63
sg9
g10
sg11
S'30'
p3975
sb(I0
I48
I0
tp3976
sg1
(g2
g3
Ntp3977
Rp3978
(dp3979
g7
g57
sg9
g10
sg11
S'14'
p3980
sb(I6
I13
I0
tp3981
sg1
(g2
g3
Ntp3982
Rp3983
(dp3984
g7
S'10'
p3985
sg9
g10
sg11
g57
sb(I5
I10
I1
tp3986
sg1
(g2
g3
Ntp3987
Rp3988
(dp3989
g7
g17
sg9
g10
sg11
g12
sbg275
sg1
(g2
g3
Ntp3990
Rp3991
(dp3992
g7
S'10'
p3993
sg9
g25
sg11
g57
sb(I0
I0
I619
tp3994
sg1
(g2
g3
Ntp3995
Rp3996
(dp3997
g7
S'18'
p3998
sg9
g10
sg11
S'12'
p3999
sb(I2
I1022
I0
tp4000
sg1
(g2
g3
Ntp4001
Rp4002
(dp4003
g7
g17
sg9
g25
sg11
g12
sb(I0
I0
I58
tp4004
sg1
(g2
g3
Ntp4005
Rp4006
(dp4007
g7
S'23'
p4008
sg9
g10
sg11
S'28'
p4009
sb(I0
I500
I0
tp4010
sg1
(g2
g3
Ntp4011
Rp4012
(dp4013
g7
g63
sg9
g10
sg11
S'23'
p4014
sb(I0
I43
I0
tp4015
sg1
(g2
g3
Ntp4016
Rp4017
(dp4018
g7
g106
sg9
g30
sg11
g63
sb(I0
I0
I144
tp4019
sg1
(g2
g3
Ntp4020
Rp4021
(dp4022
g7
S'11'
p4023
sg9
g10
sg11
S'31'
p4024
sb(I0
I6
I0
tp4025
sg1
(g2
g3
Ntp4026
Rp4027
(dp4028
g7
g57
sg9
g30
sg11
g63
sb(I0
I0
I156
tp4029
sg1
(g2
g3
Ntp4030
Rp4031
(dp4032
g7
S'10'
p4033
sg9
g30
sg11
g57
sb(I0
I0
I1336
tp4034
sg1
(g2
g3
Ntp4035
Rp4036
(dp4037
g7
S'22'
p4038
sg9
g10
sg11
g12
sb(I43
I0
I0
tp4039
sg1
(g2
g3
Ntp4040
Rp4041
(dp4042
g7
S'17'
p4043
sg9
g10
sg11
S'18'
p4044
sb(I1408
I0
I0
tp4045
sg1
(g2
g3
Ntp4046
Rp4047
(dp4048
g7
g63
sg9
g25
sg11
S'20'
p4049
sb(I0
I0
I470
tp4050
sg1
(g2
g3
Ntp4051
Rp4052
(dp4053
g7
g17
sg9
g25
sg11
S'16'
p4054
sb(I0
I0
I352
tp4055
sg1
(g2
g3
Ntp4056
Rp4057
(dp4058
g7
g12
sg9
g25
sg11
g106
sb(I0
I0
I24
tp4059
sg1
(g2
g3
Ntp4060
Rp4061
(dp4062
g7
S'17'
p4063
sg9
g10
sg11
g63
sb(I0
I166
I0
tp4064
sg1
(g2
g3
Ntp4065
Rp4066
(dp4067
g7
g63
sg9
g30
sg11
S'20'
p4068
sb(I0
I0
I1289
tp4069
sg1
(g2
g3
Ntp4070
Rp4071
(dp4072
g7
g17
sg9
g30
sg11
S'16'
p4073
sb(I0
I0
I1171
tp4074
sg1
(g2
g3
Ntp4075
Rp4076
(dp4077
g7
S'21'
p4078
sg9
g10
sg11
g95
sb(I0
I203
I0
tp4079
sg1
(g2
g3
Ntp4080
Rp4081
(dp4082
g7
g17
sg9
g18
sg11
S'16'
p4083
sb(I0
I0
I23
tp4084
sg1
(g2
g3
Ntp4085
Rp4086
(dp4087
g7
g63
sg9
g18
sg11
S'20'
p4088
sb(I0
I0
I407
tp4089
sg1
(g2
g3
Ntp4090
Rp4091
(dp4092
g7
S'11'
p4093
sg9
g30
sg11
S'10'
p4094
sb(I0
I0
I389
tp4095
sg1
(g2
g3
Ntp4096
Rp4097
(dp4098
g7
S'17'
p4099
sg9
g10
sg11
S'22'
p4100
sb(I1
I2401
I0
tp4101
sg1
(g2
g3
Ntp4102
Rp4103
(dp4104
g7
S'11'
p4105
sg9
g18
sg11
g63
sb(I0
I0
I22
tp4106
sg1
(g2
g3
Ntp4107
Rp4108
(dp4109
g7
g63
sg9
g10
sg11
S'20'
p4110
sb(I38
I10
I2
tp4111
sg1
(g2
g3
Ntp4112
Rp4113
(dp4114
g7
g57
sg9
g25
sg11
S'15'
p4115
sb(I0
I0
I386
tp4116
sg1
(g2
g3
Ntp4117
Rp4118
(dp4119
g7
S'26'
p4120
sg9
g10
sg11
S'19'
p4121
sb(I407
I0
I0
tp4122
sg1
(g2
g3
Ntp4123
Rp4124
(dp4125
g7
S'11'
p4126
sg9
g18
sg11
S'16'
p4127
sb(I0
I0
I21
tp4128
sg1
(g2
g3
Ntp4129
Rp4130
(dp4131
g7
g106
sg9
g10
sg11
S'30'
p4132
sb(I0
I29
I0
tp4133
sg1
(g2
g3
Ntp4134
Rp4135
(dp4136
g7
g106
sg9
g18
sg11
S'10'
p4137
sb(I0
I0
I30
tp4138
sg1
(g2
g3
Ntp4139
Rp4140
(dp4141
g7
S'18'
p4142
sg9
g10
sg11
S'27'
p4143
sb(I1
I1369
I0
tp4144
sg1
(g2
g3
Ntp4145
Rp4146
(dp4147
g7
S'10'
p4148
sg9
g10
sg11
S'15'
p4149
sb(I16
I52
I6
tp4150
sg1
(g2
g3
Ntp4151
Rp4152
(dp4153
g7
S'22'
p4154
sg9
g10
sg11
S'11'
p4155
sb(I290
I0
I0
tp4156
sg1
(g2
g3
Ntp4157
Rp4158
(dp4159
g7
g63
sg9
g30
sg11
g78
sb(I0
I0
I24
tp4160
sg1
(g2
g3
Ntp4161
Rp4162
(dp4163
g7
g106
sg9
g10
sg11
S'23'
p4164
sb(I0
I45
I0
tp4165
sg1
(g2
g3
Ntp4166
Rp4167
(dp4168
g7
g78
sg9
g10
sg11
S'26'
p4169
sb(I0
I29
I0
tp4170
sg1
(g2
g3
Ntp4171
Rp4172
(dp4173
g7
g63
sg9
g25
sg11
S'15'
p4174
sb(I0
I0
I334
tp4175
sg1
(g2
g3
Ntp4176
Rp4177
(dp4178
g7
S'17'
p4179
sg9
g10
sg11
S'24'
p4180
sb(I0
I1985
I0
tp4181
sg1
(g2
g3
Ntp4182
Rp4183
(dp4184
g7
g12
sg9
g30
sg11
S'11'
p4185
sb(I0
I0
I489
tp4186
sg1
(g2
g3
Ntp4187
Rp4188
(dp4189
g7
g57
sg9
g25
sg11
S'13'
p4190
sb(I0
I0
I437
tp4191
sg1
(g2
g3
Ntp4192
Rp4193
(dp4194
g7
g57
sg9
g30
sg11
S'13'
p4195
sb(I0
I0
I1108
tp4196
sg1
(g2
g3
Ntp4197
Rp4198
(dp4199
g7
g57
sg9
g10
sg11
S'25'
p4200
sb(I0
I39
I0
tp4201
sg1
(g2
g3
Ntp4202
Rp4203
(dp4204
g7
g63
sg9
g30
sg11
S'15'
p4205
sb(I0
I0
I1155
tp4206
sg1
(g2
g3
Ntp4207
Rp4208
(dp4209
g7
g57
sg9
g10
sg11
S'28'
p4210
sb(I0
I26
I0
tp4211
sg1
(g2
g3
Ntp4212
Rp4213
(dp4214
g7
g95
sg9
g10
sg11
S'17'
p4215
sb(I11
I10
I1
tp4216
sg1
(g2
g3
Ntp4217
Rp4218
(dp4219
g7
S'25'
p4220
sg9
g10
sg11
S'28'
p4221
sb(I0
I385
I0
tp4222
sg1
(g2
g3
Ntp4223
Rp4224
(dp4225
g7
g36
sg9
g25
sg11
g12
sb(I0
I0
I60
tp4226
sg1
(g2
g3
Ntp4227
Rp4228
(dp4229
g7
g12
sg9
g10
sg11
S'11'
p4230
sb(I6
I4
I0
tp4231
sg1
(g2
g3
Ntp4232
Rp4233
(dp4234
g7
g95
sg9
g25
sg11
S'17'
p4235
sb(I0
I0
I298
tp4236
sg1
(g2
g3
Ntp4237
Rp4238
(dp4239
g7
S'10'
p4240
sg9
g25
sg11
S'13'
p4241
sb(I0
I0
I1617
tp4242
sg1
(g2
g3
Ntp4243
Rp4244
(dp4245
g7
g57
sg9
g10
sg11
S'11'
p4246
sb(I0
I5
I0
tp4247
sg1
(g2
g3
Ntp4248
Rp4249
(dp4250
g7
S'10'
p4251
sg9
g30
sg11
S'13'
p4252
sb(I0
I0
I4502
tp4253
sg1
(g2
g3
Ntp4254
Rp4255
(dp4256
g7
g36
sg9
g30
sg11
g12
sb(I0
I0
I122
tp4257
sg1
(g2
g3
Ntp4258
Rp4259
(dp4260
g7
S'20'
p4261
sg9
g10
sg11
S'21'
p4262
sb(I2017
I0
I0
tp4263
sg1
(g2
g3
Ntp4264
Rp4265
(dp4266
g7
S'26'
p4267
sg9
g10
sg11
S'17'
p4268
sb(I385
I0
I0
tp4269
sg1
(g2
g3
Ntp4270
Rp4271
(dp4272
g7
g95
sg9
g30
sg11
S'17'
p4273
sb(I0
I0
I1147
tp4274
sg1
(g2
g3
Ntp4275
Rp4276
(dp4277
g7
g106
sg9
g10
sg11
S'25'
p4278
sb(I0
I39
I0
tp4279
sg1
(g2
g3
Ntp4280
Rp4281
(dp4282
g7
S'25'
p4283
sg9
g10
sg11
S'26'
p4284
sb(I0
I504
I0
tp4285
sg1
(g2
g3
Ntp4286
Rp4287
(dp4288
g7
g12
sg9
g30
sg11
S'21'
p4289
sb(I0
I0
I1219
tp4290
sg1
(g2
g3
Ntp4291
Rp4292
(dp4293
g7
g57
sg9
g25
sg11
S'11'
p4294
sb(I0
I0
I192
tp4295
sg1
(g2
g3
Ntp4296
Rp4297
(dp4298
g7
g17
sg9
g30
sg11
S'15'
p4299
sb(I0
I0
I1163
tp4300
sg1
(g2
g3
Ntp4301
Rp4302
(dp4303
g7
g63
sg9
g25
sg11
S'17'
p4304
sb(I0
I0
I319
tp4305
sg1
(g2
g3
Ntp4306
Rp4307
(dp4308
g7
g78
sg9
g10
sg11
S'31'
p4309
sb(I0
I11
I0
tp4310
sg1
(g2
g3
Ntp4311
Rp4312
(dp4313
g7
S'10'
p4314
sg9
g18
sg11
S'20'
p4315
sb(I0
I0
I1532
tp4316
sg1
(g2
g3
Ntp4317
Rp4318
(dp4319
g7
g63
sg9
g30
sg11
S'17'
p4320
sb(I0
I0
I1146
tp4321
sg1
(g2
g3
Ntp4322
Rp4323
(dp4324
g7
g106
sg9
g10
sg11
S'28'
p4325
sb(I0
I27
I0
tp4326
sg1
(g2
g3
Ntp4327
Rp4328
(dp4329
g7
g12
sg9
g25
sg11
S'21'
p4330
sb(I0
I0
I199
tp4331
sg1
(g2
g3
Ntp4332
Rp4333
(dp4334
g7
g57
sg9
g30
sg11
S'11'
p4335
sb(I0
I0
I516
tp4336
sg1
(g2
g3
Ntp4337
Rp4338
(dp4339
g7
S'22'
p4340
sg9
g10
sg11
S'30'
p4341
sb(I1
I475
I0
tp4342
sg1
(g2
g3
Ntp4343
Rp4344
(dp4345
g7
S'10'
p4346
sg9
g30
sg11
S'20'
p4347
sb(I0
I0
I5124
tp4348
sg1
(g2
g3
Ntp4349
Rp4350
(dp4351
g7
g12
sg9
g10
sg11
S'21'
p4352
sb(I27
I1
I0
tp4353
sg1
(g2
g3
Ntp4354
Rp4355
(dp4356
g7
g17
sg9
g10
sg11
S'15'
p4357
sb(I10
I15
I0
tp4358
sg1
(g2
g3
Ntp4359
Rp4360
(dp4361
g7
S'26'
p4362
sg9
g10
sg11
S'11'
p4363
sb(I148
I0
I0
tp4364
sg1
(g2
g3
Ntp4365
Rp4366
(dp4367
g7
g106
sg9
g10
sg11
S'27'
p4368
sb(I0
I34
I0
tp4369
sg1
(g2
g3
Ntp4370
Rp4371
(dp4372
g7
g63
sg9
g10
sg11
S'17'
p4373
sb(I18
I12
I1
tp4374
sg1
(g2
g3
Ntp4375
Rp4376
(dp4377
g7
S'23'
p4378
sg9
g10
sg11
S'27'
p4379
sb(I1
I629
I0
tp4380
sg1
(g2
g3
Ntp4381
Rp4382
(dp4383
g7
S'10'
p4384
sg9
g25
sg11
S'20'
p4385
sb(I0
I0
I2053
tp4386
sg1
(g2
g3
Ntp4387
Rp4388
(dp4389
g7
S'22'
p4390
sg9
g10
sg11
S'16'
p4391
sb(I730
I0
I0
tp4392
sg1
(g2
g3
Ntp4393
Rp4394
(dp4395
g7
S'10'
p4396
sg9
g18
sg11
g78
sb(I0
I0
I100
tp4397
sg1
(g2
g3
Ntp4398
Rp4399
(dp4400
g7
S'21'
p4401
sg9
g10
sg11
S'26'
p4402
sb(I0
I1378
I0
tp4403
sg1
(g2
g3
Ntp4404
Rp4405
(dp4406
g7
S'23'
p4407
sg9
g10
sg11
S'19'
p4408
sb(I670
I0
I0
tp4409
sg1
(g2
g3
Ntp4410
Rp4411
(dp4412
g7
S'23'
p4413
sg9
g10
sg11
g12
sb(I46
I0
I0
tp4414
sg1
(g2
g3
Ntp4415
Rp4416
(dp4417
g7
g78
sg9
g10
sg11
S'23'
p4418
sb(I0
I61
I0
tp4419
sg1
(g2
g3
Ntp4420
Rp4421
(dp4422
g7
g36
sg9
g30
sg11
g17
sbg2162
sg1
(g2
g3
Ntp4423
Rp4424
(dp4425
g7
g63
sg9
g30
sg11
g95
sb(I0
I0
I213
tp4426
sg1
(g2
g3
Ntp4427
Rp4428
(dp4429
g7
S'21'
p4430
sg9
g10
sg11
S'10'
p4431
sb(I0
I356
I0
tp4432
sg1
(g2
g3
Ntp4433
Rp4434
(dp4435
g7
S'26'
p4436
sg9
g10
sg11
S'30'
p4437
sb(I0
I265
I0
tp4438
sg1
(g2
g3
Ntp4439
Rp4440
(dp4441
g7
g36
sg9
g10
sg11
g63
sb(I0
I2
I0
tp4442
sg1
(g2
g3
Ntp4443
Rp4444
(dp4445
g7
S'10'
p4446
sg9
g30
sg11
g78
sb(I0
I0
I94
tp4447
sg1
(g2
g3
Ntp4448
Rp4449
(dp4450
g7
S'20'
p4451
sg9
g10
sg11
g12
sb(I0
I138
I0
tp4452
sg1
(g2
g3
Ntp4453
Rp4454
(dp4455
g7
S'23'
p4456
sg9
g10
sg11
S'17'
p4457
sb(I641
I0
I0
tp4458
sg1
(g2
g3
Ntp4459
Rp4460
(dp4461
g7
S'20'
p4462
sg9
g10
sg11
S'29'
p4463
sb(I0
I1225
I0
tp4464
sg1
(g2
g3
Ntp4465
Rp4466
(dp4467
g7
g36
sg9
g10
sg11
S'20'
p4468
sb(I41
I4
I3
tp4469
sg1
(g2
g3
Ntp4470
Rp4471
(dp4472
g7
g36
sg9
g10
sg11
S'30'
p4473
sb(I0
I34
I0
tp4474
sg1
(g2
g3
Ntp4475
Rp4476
(dp4477
g7
g36
sg9
g18
sg11
S'20'
p4478
sb(I0
I0
I384
tp4479
sg1
(g2
g3
Ntp4480
Rp4481
(dp4482
g7
S'17'
p4483
sg9
g10
sg11
S'12'
p4484
sb(I2
I1074
I0
tp4485
sg1
(g2
g3
Ntp4486
Rp4487
(dp4488
g7
g36
sg9
g30
sg11
S'20'
p4489
sb(I0
I0
I1248
tp4490
sg1
(g2
g3
Ntp4491
Rp4492
(dp4493
g7
g17
sg9
g10
sg11
S'18'
p4494
sb(I11
I14
I2
tp4495
sg1
(g2
g3
Ntp4496
Rp4497
(dp4498
g7
g36
sg9
g25
sg11
S'20'
p4499
sb(I0
I0
I521
tp4500
sg1
(g2
g3
Ntp4501
Rp4502
(dp4503
g7
S'24'
p4504
sg9
g10
sg11
g63
sb(I71
I0
I0
tp4505
sg1
(g2
g3
Ntp4506
Rp4507
(dp4508
g7
S'24'
p4509
sg9
g10
sg11
S'24'
p4510
sb(I0
I768
I0
tp4511
sg1
(g2
g3
Ntp4512
Rp4513
(dp4514
g7
g36
sg9
g25
sg11
S'13'
p4515
sb(I0
I0
I395
tp4516
sg1
(g2
g3
Ntp4517
Rp4518
(dp4519
g7
g57
sg9
g30
sg11
g12
sb(I0
I0
I117
tp4520
sg1
(g2
g3
Ntp4521
Rp4522
(dp4523
g7
S'26'
p4524
sg9
g10
sg11
g106
sb(I21
I0
I0
tp4525
sg1
(g2
g3
Ntp4526
Rp4527
(dp4528
g7
S'23'
p4529
sg9
g10
sg11
S'26'
p4530
sb(I1
I744
I0
tp4531
sg1
(g2
g3
Ntp4532
Rp4533
(dp4534
g7
g57
sg9
g25
sg11
S'20'
p4535
sb(I0
I0
I511
tp4536
sg1
(g2
g3
Ntp4537
Rp4538
(dp4539
g7
g106
sg9
g18
sg11
S'20'
p4540
sb(I0
I0
I405
tp4541
sg1
(g2
g3
Ntp4542
Rp4543
(dp4544
g7
S'24'
p4545
sg9
g10
sg11
S'28'
p4546
sb(I0
I439
I0
tp4547
sg1
(g2
g3
Ntp4548
Rp4549
(dp4550
g7
g57
sg9
g30
sg11
S'20'
p4551
sb(I0
I0
I1351
tp4552
sg1
(g2
g3
Ntp4553
Rp4554
(dp4555
g7
g36
sg9
g30
sg11
S'13'
p4556
sb(I0
I0
I1154
tp4557
sg1
(g2
g3
Ntp4558
Rp4559
(dp4560
g7
g57
sg9
g25
sg11
g12
sb(I0
I0
I50
tp4561
sg1
(g2
g3
Ntp4562
Rp4563
(dp4564
g7
g57
sg9
g18
sg11
S'20'
p4565
sb(I0
I0
I399
tp4566
sg1
(g2
g3
Ntp4567
Rp4568
(dp4569
g7
g106
sg9
g30
sg11
S'20'
p4570
sb(I0
I0
I1374
tp4571
sg1
(g2
g3
Ntp4572
Rp4573
(dp4574
g7
S'21'
p4575
sg9
g10
sg11
S'25'
p4576
sb(I0
I1429
I0
tp4577
sg1
(g2
g3
Ntp4578
Rp4579
(dp4580
g7
S'11'
p4581
sg9
g18
sg11
S'10'
p4582
sb(I0
I0
I30
tp4583
sg1
(g2
g3
Ntp4584
Rp4585
(dp4586
g7
g106
sg9
g30
sg11
g12
sb(I0
I0
I111
tp4587
sg1
(g2
g3
Ntp4588
Rp4589
(dp4590
g7
S'20'
p4591
sg9
g10
sg11
g63
sb(I0
I187
I0
tp4592
sg1
(g2
g3
Ntp4593
Rp4594
(dp4595
g7
g57
sg9
g10
sg11
S'20'
p4596
sb(I40
I8
I1
tp4597
sg1
(g2
g3
Ntp4598
Rp4599
(dp4600
g7
S'11'
p4601
sg9
g10
sg11
S'10'
p4602
sb(I0
I2
I1
tp4603
sg1
(g2
g3
Ntp4604
Rp4605
(dp4606
g7
g106
sg9
g25
sg11
S'20'
p4607
sb(I0
I0
I449
tp4608
sg1
(g2
g3
Ntp4609
Rp4610
(dp4611
g7
S'10'
p4612
sg9
g25
sg11
g78
sb(I0
I0
I95
tp4613
sg1
(g2
g3
Ntp4614
Rp4615
(dp4616
g7
S'18'
p4617
sg9
g10
sg11
S'13'
p4618
sb(I0
I1220
I0
tp4619
sg1
(g2
g3
Ntp4620
Rp4621
(dp4622
g7
S'11'
p4623
sg9
g25
sg11
S'20'
p4624
sb(I0
I0
I507
tp4625
sg1
(g2
g3
Ntp4626
Rp4627
(dp4628
g7
g78
sg9
g25
sg11
S'15'
p4629
sb(I0
I0
I364
tp4630
sg1
(g2
g3
Ntp4631
Rp4632
(dp4633
g7
g78
sg9
g30
sg11
S'15'
p4634
sb(I0
I0
I1161
tp4635
sg1
(g2
g3
Ntp4636
Rp4637
(dp4638
g7
S'20'
p4639
sg9
g10
sg11
S'18'
p4640
sb(I0
I1844
I0
tp4641
sg1
(g2
g3
Ntp4642
Rp4643
(dp4644
g7
g17
sg9
g10
sg11
S'17'
p4645
sb(I8
I13
I0
tp4646
sg1
(g2
g3
Ntp4647
Rp4648
(dp4649
g7
S'23'
p4650
sg9
g10
sg11
S'31'
p4651
sb(I0
I199
I0
tp4652
sg1
(g2
g3
Ntp4653
Rp4654
(dp4655
g7
S'23'
p4656
sg9
g10
sg11
S'15'
p4657
sb(I592
I0
I0
tp4658
sg1
(g2
g3
Ntp4659
Rp4660
(dp4661
g7
S'11'
p4662
sg9
g30
sg11
S'20'
p4663
sb(I0
I0
I1263
tp4664
sg1
(g2
g3
Ntp4665
Rp4666
(dp4667
g7
S'10'
p4668
sg9
g10
sg11
S'20'
p4669
sb(I105
I74
I5
tp4670
sg1
(g2
g3
Ntp4671
Rp4672
(dp4673
g7
S'11'
p4674
sg9
g18
sg11
S'20'
p4675
sb(I0
I0
I378
tp4676
sg1
(g2
g3
Ntp4677
Rp4678
(dp4679
g7
g17
sg9
g25
sg11
S'17'
p4680
sb(I0
I0
I327
tp4681
sg1
(g2
g3
Ntp4682
Rp4683
(dp4684
g7
g78
sg9
g10
sg11
S'15'
p4685
sb(I4
I20
I0
tp4686
sg1
(g2
g3
Ntp4687
Rp4688
(dp4689
g7
g17
sg9
g30
sg11
S'17'
p4690
sb(I0
I0
I1101
tp4691
sg1
(g2
g3
Ntp4692
Rp4693
(dp4694
g7
g36
sg9
g10
sg11
S'23'
p4695
sb(I0
I37
I0
tp4696
sg1
(g2
g3
Ntp4697
Rp4698
(dp4699
g7
S'11'
p4700
sg9
g10
sg11
S'20'
p4701
sb(I21
I20
I2
tp4702
sg1
(g2
g3
Ntp4703
Rp4704
(dp4705
g7
g36
sg9
g10
sg11
S'28'
p4706
sb(I0
I20
I0
tp4707
sg1
(g2
g3
Ntp4708
Rp4709
(dp4710
g7
g12
sg9
g25
sg11
S'13'
p4711
sb(I0
I0
I421
tp4712
sg1
(g2
g3
Ntp4713
Rp4714
(dp4715
g7
g12
sg9
g10
sg11
g63
sbg275
sg1
(g2
g3
Ntp4716
Rp4717
(dp4718
g7
S'11'
p4719
sg9
g18
sg11
g78
sb(I0
I0
I22
tp4720
sg1
(g2
g3
Ntp4721
Rp4722
(dp4723
g7
S'22'
p4724
sg9
g10
sg11
S'23'
p4725
sb(I1
I1053
I0
tp4726
sg1
(g2
g3
Ntp4727
Rp4728
(dp4729
g7
S'18'
p4730
sg9
g10
sg11
S'20'
p4731
sb(I1813
I0
I0
tp4732
sg1
(g2
g3
Ntp4733
Rp4734
(dp4735
g7
g12
sg9
g30
sg11
S'13'
p4736
sb(I0
I0
I1076
tp4737
sg1
(g2
g3
Ntp4738
Rp4739
(dp4740
g7
g78
sg9
g10
sg11
g57
sb(I1
I1
I1
tp4741
sg1
(g2
g3
Ntp4742
Rp4743
(dp4744
g7
g78
sg9
g10
sg11
S'24'
p4745
sb(I0
I50
I0
tp4746
sg1
(g2
g3
Ntp4747
Rp4748
(dp4749
g7
S'11'
p4750
sg9
g25
sg11
g78
sb(I0
I0
I24
tp4751
sg1
(g2
g3
Ntp4752
Rp4753
(dp4754
g7
g17
sg9
g10
sg11
g63
sbg275
sg1
(g2
g3
Ntp4755
Rp4756
(dp4757
g7
S'19'
p4758
sg9
g10
sg11
S'10'
p4759
sb(I0
I386
I0
tp4760
sg1
(g2
g3
Ntp4761
Rp4762
(dp4763
g7
S'25'
p4764
sg9
g10
sg11
S'25'
p4765
sb(I0
I565
I0
tp4766
sg1
(g2
g3
Ntp4767
Rp4768
(dp4769
g7
S'24'
p4770
sg9
g10
sg11
S'21'
p4771
sb(I606
I0
I0
tp4772
sg1
(g2
g3
Ntp4773
Rp4774
(dp4775
g7
S'22'
p4776
sg9
g10
sg11
S'17'
p4777
sb(I727
I0
I0
tp4778
sg1
(g2
g3
Ntp4779
Rp4780
(dp4781
g7
g63
sg9
g25
sg11
S'14'
p4782
sb(I0
I0
I391
tp4783
sg1
(g2
g3
Ntp4784
Rp4785
(dp4786
g7
g12
sg9
g10
sg11
S'13'
p4787
sb(I4
I13
I1
tp4788
sg1
(g2
g3
Ntp4789
Rp4790
(dp4791
g7
g36
sg9
g10
sg11
S'14'
p4792
sb(I5
I17
I0
tp4793
sg1
(g2
g3
Ntp4794
Rp4795
(dp4796
g7
S'10'
p4797
sg9
g10
sg11
S'29'
p4798
sb(I0
I96
I0
tp4799
sg1
(g2
g3
Ntp4800
Rp4801
(dp4802
g7
S'20'
p4803
sg9
g10
sg11
S'25'
p4804
sb(I1
I2149
I0
tp4805
sg1
(g2
g3
Ntp4806
Rp4807
(dp4808
g7
g95
sg9
g25
sg11
S'13'
p4809
sb(I0
I0
I401
tp4810
sg1
(g2
g3
Ntp4811
Rp4812
(dp4813
g7
g36
sg9
g30
sg11
S'15'
p4814
sb(I0
I0
I1116
tp4815
sg1
(g2
g3
Ntp4816
Rp4817
(dp4818
g7
g78
sg9
g18
sg11
g78
sb(I0
I0
I24
tp4819
sg1
(g2
g3
Ntp4820
Rp4821
(dp4822
g7
g63
sg9
g25
sg11
S'18'
p4823
sb(I0
I0
I297
tp4824
sg1
(g2
g3
Ntp4825
Rp4826
(dp4827
g7
g78
sg9
g25
sg11
g106
sb(I0
I0
I26
tp4828
sg1
(g2
g3
Ntp4829
Rp4830
(dp4831
g7
g57
sg9
g30
sg11
g57
sb(I0
I0
I338
tp4832
sg1
(g2
g3
Ntp4833
Rp4834
(dp4835
g7
g78
sg9
g25
sg11
g78
sb(I0
I0
I19
tp4836
sg1
(g2
g3
Ntp4837
Rp4838
(dp4839
g7
g36
sg9
g10
sg11
S'11'
p4840
sb(I2
I6
I0
tp4841
sg1
(g2
g3
Ntp4842
Rp4843
(dp4844
g7
g95
sg9
g10
sg11
S'12'
p4845
sb(I5
I7
I1
tp4846
sg1
(g2
g3
Ntp4847
Rp4848
(dp4849
g7
g57
sg9
g10
sg11
g57
sb(I0
I6
I0
tp4850
sg1
(g2
g3
Ntp4851
Rp4852
(dp4853
g7
g36
sg9
g25
sg11
S'15'
p4854
sb(I0
I0
I372
tp4855
sg1
(g2
g3
Ntp4856
Rp4857
(dp4858
g7
g12
sg9
g10
sg11
g57
sb(I2
I0
I0
tp4859
sg1
(g2
g3
Ntp4860
Rp4861
(dp4862
g7
g63
sg9
g18
sg11
g78
sb(I0
I0
I27
tp4863
sg1
(g2
g3
Ntp4864
Rp4865
(dp4866
g7
S'24'
p4867
sg9
g10
sg11
S'25'
p4868
sb(I0
I742
I0
tp4869
sg1
(g2
g3
Ntp4870
Rp4871
(dp4872
g7
g12
sg9
g30
sg11
S'20'
p4873
sb(I0
I0
I1273
tp4874
sg1
(g2
g3
Ntp4875
Rp4876
(dp4877
g7
g17
sg9
g30
sg11
S'11'
p4878
sb(I0
I0
I530
tp4879
sg1
(g2
g3
Ntp4880
Rp4881
(dp4882
g7
g12
sg9
g25
sg11
S'20'
p4883
sb(I0
I0
I474
tp4884
sg1
(g2
g3
Ntp4885
Rp4886
(dp4887
g7
g12
sg9
g30
sg11
g57
sb(I0
I0
I320
tp4888
sg1
(g2
g3
Ntp4889
Rp4890
(dp4891
g7
g57
sg9
g18
sg11
S'14'
p4892
sb(I0
I0
I19
tp4893
sg1
(g2
g3
Ntp4894
Rp4895
(dp4896
g7
g63
sg9
g25
sg11
g78
sb(I0
I0
I19
tp4897
sg1
(g2
g3
Ntp4898
Rp4899
(dp4900
g7
g12
sg9
g10
sg11
S'20'
p4901
sb(I34
I13
I2
tp4902
sg1
(g2
g3
Ntp4903
Rp4904
(dp4905
g7
S'26'
p4906
sg9
g10
sg11
S'21'
p4907
sb(I444
I0
I0
tp4908
sg1
(g2
g3
Ntp4909
Rp4910
(dp4911
g7
S'24'
p4912
sg9
g10
sg11
S'17'
p4913
sb(I523
I0
I0
tp4914
sg1
(g2
g3
Ntp4915
Rp4916
(dp4917
g7
S'21'
p4918
sg9
g10
sg11
g63
sb(I0
I136
I0
tp4919
sg1
(g2
g3
Ntp4920
Rp4921
(dp4922
g7
g12
sg9
g18
sg11
S'20'
p4923
sb(I0
I0
I389
tp4924
sg1
(g2
g3
Ntp4925
Rp4926
(dp4927
g7
g12
sg9
g25
sg11
g57
sb(I0
I0
I147
tp4928
sg1
(g2
g3
Ntp4929
Rp4930
(dp4931
g7
S'22'
p4932
sg9
g10
sg11
S'26'
p4933
sb(I0
I747
I0
tp4934
sg1
(g2
g3
Ntp4935
Rp4936
(dp4937
g7
g36
sg9
g10
sg11
g57
sb(I0
I4
I1
tp4938
sg1
(g2
g3
Ntp4939
Rp4940
(dp4941
g7
g106
sg9
g10
sg11
S'13'
p4942
sb(I10
I12
I1
tp4943
sg1
(g2
g3
Ntp4944
Rp4945
(dp4946
g7
g63
sg9
g10
sg11
S'13'
p4947
sb(I8
I10
I1
tp4948
sg1
(g2
g3
Ntp4949
Rp4950
(dp4951
g7
S'20'
p4952
sg9
g10
sg11
g106
sb(I0
I82
I0
tp4953
sg1
(g2
g3
Ntp4954
Rp4955
(dp4956
g7
S'24'
p4957
sg9
g10
sg11
S'18'
p4958
sb(I578
I0
I0
tp4959
sg1
(g2
g3
Ntp4960
Rp4961
(dp4962
g7
S'20'
p4963
sg9
g10
sg11
S'30'
p4964
sb(I0
I1172
I0
tp4965
sg1
(g2
g3
Ntp4966
Rp4967
(dp4968
g7
g106
sg9
g30
sg11
S'13'
p4969
sb(I0
I0
I1141
tp4970
sg1
(g2
g3
Ntp4971
Rp4972
(dp4973
g7
S'19'
p4974
sg9
g10
sg11
S'14'
p4975
sb(I0
I1171
I0
tp4976
sg1
(g2
g3
Ntp4977
Rp4978
(dp4979
g7
S'21'
p4980
sg9
g10
sg11
S'28'
p4981
sb(I0
I958
I0
tp4982
sg1
(g2
g3
Ntp4983
Rp4984
(dp4985
g7
g36
sg9
g10
sg11
S'15'
p4986
sb(I7
I13
I0
tp4987
sg1
(g2
g3
Ntp4988
Rp4989
(dp4990
g7
S'20'
p4991
sg9
g10
sg11
S'24'
p4992
sb(I0
I2438
I0
tp4993
sg1
(g2
g3
Ntp4994
Rp4995
(dp4996
g7
g106
sg9
g25
sg11
S'13'
p4997
sb(I0
I0
I424
tp4998
sg1
(g2
g3
Ntp4999
Rp5000
(dp5001
g7
S'24'
p5002
sg9
g10
sg11
S'10'
p5003
sb(I148
I0
I0
tp5004
sg1
(g2
g3
Ntp5005
Rp5006
(dp5007
g7
S'19'
p5008
sg9
g10
sg11
S'20'
p5009
sb(I1797
I0
I0
tp5010
sg1
(g2
g3
Ntp5011
Rp5012
(dp5013
g7
g95
sg9
g25
sg11
g12
sb(I0
I0
I49
tp5014
sg1
(g2
g3
Ntp5015
Rp5016
(dp5017
g7
g63
sg9
g10
sg11
S'19'
p5018
sb(I25
I8
I0
tp5019
sg1
(g2
g3
Ntp5020
Rp5021
(dp5022
g7
g106
sg9
g30
sg11
g36
sb(I0
I0
I267
tp5023
sg1
(g2
g3
Ntp5024
Rp5025
(dp5026
g7
S'17'
p5027
sg9
g10
sg11
g36
sb(I0
I273
I0
tp5028
sg1
(g2
g3
Ntp5029
Rp5030
(dp5031
g7
g17
sg9
g18
sg11
g63
sb(I0
I0
I12
tp5032
sg1
(g2
g3
Ntp5033
Rp5034
(dp5035
g7
S'24'
p5036
sg9
g10
sg11
S'16'
p5037
sb(I510
I0
I0
tp5038
sg1
(g2
g3
Ntp5039
Rp5040
(dp5041
g7
g78
sg9
g10
sg11
S'14'
p5042
sb(I8
I14
I0
tp5043
sg1
(g2
g3
Ntp5044
Rp5045
(dp5046
g7
g17
sg9
g25
sg11
g95
sb(I0
I0
I93
tp5047
sg1
(g2
g3
Ntp5048
Rp5049
(dp5050
g7
S'10'
p5051
sg9
g10
sg11
S'16'
p5052
sb(I15
I57
I3
tp5053
sg1
(g2
g3
Ntp5054
Rp5055
(dp5056
g7
g17
sg9
g30
sg11
g95
sb(I0
I0
I232
tp5057
sg1
(g2
g3
Ntp5058
Rp5059
(dp5060
g7
g63
sg9
g10
sg11
S'27'
p5061
sb(I0
I31
I0
tp5062
sg1
(g2
g3
Ntp5063
Rp5064
(dp5065
g7
g78
sg9
g18
sg11
S'14'
p5066
sb(I0
I0
I25
tp5067
sg1
(g2
g3
Ntp5068
Rp5069
(dp5070
g7
g95
sg9
g30
sg11
g95
sb(I0
I0
I226
tp5071
sg1
(g2
g3
Ntp5072
Rp5073
(dp5074
g7
g95
sg9
g10
sg11
S'23'
p5075
sb(I0
I29
I0
tp5076
sg1
(g2
g3
Ntp5077
Rp5078
(dp5079
g7
S'17'
p5080
sg9
g10
sg11
S'20'
p5081
sb(I1893
I0
I0
tp5082
sg1
(g2
g3
Ntp5083
Rp5084
(dp5085
g7
g78
sg9
g30
sg11
S'14'
p5086
sb(I0
I0
I1081
tp5087
sg1
(g2
g3
Ntp5088
Rp5089
(dp5090
g7
g17
sg9
g10
sg11
S'16'
p5091
sb(I4
I11
I1
tp5092
sg1
(g2
g3
Ntp5093
Rp5094
(dp5095
g7
S'26'
p5096
sg9
g10
sg11
S'24'
p5097
sb(I0
I507
I0
tp5098
sg1
(g2
g3
Ntp5099
Rp5100
(dp5101
g7
g78
sg9
g10
sg11
S'21'
p5102
sb(I23
I2
I0
tp5103
sg1
(g2
g3
Ntp5104
Rp5105
(dp5106
g7
g95
sg9
g10
sg11
S'27'
p5107
sb(I0
I38
I0
tp5108
sg1
(g2
g3
Ntp5109
Rp5110
(dp5111
g7
S'26'
p5112
sg9
g10
sg11
S'29'
p5113
sb(I0
I260
I0
tp5114
sg1
(g2
g3
Ntp5115
Rp5116
(dp5117
g7
g78
sg9
g25
sg11
S'11'
p5118
sb(I0
I0
I204
tp5119
sg1
(g2
g3
Ntp5120
Rp5121
(dp5122
g7
S'10'
p5123
sg9
g30
sg11
g95
sb(I0
I0
I889
tp5124
sg1
(g2
g3
Ntp5125
Rp5126
(dp5127
g7
S'26'
p5128
sg9
g10
sg11
S'28'
p5129
sb(I1
I355
I0
tp5130
sg1
(g2
g3
Ntp5131
Rp5132
(dp5133
g7
g63
sg9
g10
sg11
S'18'
p5134
sb(I17
I10
I0
tp5135
sg1
(g2
g3
Ntp5136
Rp5137
(dp5138
g7
g36
sg9
g30
sg11
g106
sb(I0
I0
I48
tp5139
sg1
(g2
g3
Ntp5140
Rp5141
(dp5142
g7
g78
sg9
g30
sg11
S'11'
p5143
sb(I0
I0
I480
tp5144
sg1
(g2
g3
Ntp5145
Rp5146
(dp5147
g7
S'11'
p5148
sg9
g25
sg11
S'12'
p5149
sb(I0
I0
I367
tp5150
sg1
(g2
g3
Ntp5151
Rp5152
(dp5153
g7
S'10'
p5154
sg9
g25
sg11
g95
sb(I0
I0
I391
tp5155
sg1
(g2
g3
Ntp5156
Rp5157
(dp5158
g7
g57
sg9
g18
sg11
S'18'
p5159
sb(I0
I0
I29
tp5160
sg1
(g2
g3
Ntp5161
Rp5162
(dp5163
g7
S'11'
p5164
sg9
g10
sg11
g57
sb(I1
I3
I0
tp5165
sg1
(g2
g3
Ntp5166
Rp5167
(dp5168
g7
S'11'
p5169
sg9
g18
sg11
S'14'
p5170
sb(I0
I0
I21
tp5171
sg1
(g2
g3
Ntp5172
Rp5173
(dp5174
g7
g57
sg9
g30
sg11
S'17'
p5175
sb(I0
I0
I1151
tp5176
sg1
(g2
g3
Ntp5177
Rp5178
(dp5179
g7
S'17'
p5180
sg9
g10
sg11
S'10'
p5181
sb(I0
I445
I0
tp5182
sg1
(g2
g3
Ntp5183
Rp5184
(dp5185
g7
g57
sg9
g25
sg11
S'17'
p5186
sb(I0
I0
I299
tp5187
sg1
(g2
g3
Ntp5188
Rp5189
(dp5190
g7
g78
sg9
g10
sg11
S'11'
p5191
sb(I1
I7
I0
tp5192
sg1
(g2
g3
Ntp5193
Rp5194
(dp5195
g7
S'22'
p5196
sg9
g10
sg11
g63
sb(I75
I0
I0
tp5197
sg1
(g2
g3
Ntp5198
Rp5199
(dp5200
g7
g12
sg9
g30
sg11
S'17'
p5201
sb(I0
I0
I1184
tp5202
sg1
(g2
g3
Ntp5203
Rp5204
(dp5205
g7
S'22'
p5206
sg9
g10
sg11
S'29'
p5207
sb(I1
I476
I0
tp5208
sg1
(g2
g3
Ntp5209
Rp5210
(dp5211
g7
g95
sg9
g30
sg11
S'11'
p5212
sb(I0
I0
I509
tp5213
sg1
(g2
g3
Ntp5214
Rp5215
(dp5216
g7
S'25'
p5217
sg9
g10
sg11
S'15'
p5218
sb(I441
I0
I0
tp5219
sg1
(g2
g3
Ntp5220
Rp5221
(dp5222
g7
g95
sg9
g25
sg11
S'11'
p5223
sb(I0
I0
I211
tp5224
sg1
(g2
g3
Ntp5225
Rp5226
(dp5227
g7
S'21'
p5228
sg9
g10
sg11
S'30'
p5229
sb(I0
I836
I0
tp5230
sg1
(g2
g3
Ntp5231
Rp5232
(dp5233
g7
g36
sg9
g25
sg11
S'21'
p5234
sb(I0
I0
I205
tp5235
sg1
(g2
g3
Ntp5236
Rp5237
(dp5238
g7
g12
sg9
g25
sg11
S'17'
p5239
sb(I0
I0
I319
tp5240
sg1
(g2
g3
Ntp5241
Rp5242
(dp5243
g7
g12
sg9
g18
sg11
g63
sb(I0
I0
I14
tp5244
sg1
(g2
g3
Ntp5245
Rp5246
(dp5247
g7
S'24'
p5248
sg9
g10
sg11
g95
sb(I90
I0
I0
tp5249
sg1
(g2
g3
Ntp5250
Rp5251
(dp5252
g7
g57
sg9
g10
sg11
S'26'
p5253
sb(I0
I39
I0
tp5254
sg1
(g2
g3
Ntp5255
Rp5256
(dp5257
g7
S'20'
p5258
sg9
g10
sg11
S'16'
p5259
sb(I0
I1709
I0
tp5260
sg1
(g2
g3
Ntp5261
Rp5262
(dp5263
g7
g95
sg9
g10
sg11
S'11'
p5264
sb(I3
I5
I0
tp5265
sg1
(g2
g3
Ntp5266
Rp5267
(dp5268
g7
S'17'
p5269
sg9
g10
sg11
S'27'
p5270
sb(I0
I1329
I0
tp5271
sg1
(g2
g3
Ntp5272
Rp5273
(dp5274
g7
g78
sg9
g25
sg11
S'13'
p5275
sb(I0
I0
I398
tp5276
sg1
(g2
g3
Ntp5277
Rp5278
(dp5279
g7
S'11'
p5280
sg9
g10
sg11
S'14'
p5281
sb(I1
I16
I1
tp5282
sg1
(g2
g3
Ntp5283
Rp5284
(dp5285
g7
g106
sg9
g10
sg11
S'12'
p5286
sb(I4
I7
I1
tp5287
sg1
(g2
g3
Ntp5288
Rp5289
(dp5290
g7
g78
sg9
g30
sg11
S'13'
p5291
sb(I0
I0
I1092
tp5292
sg1
(g2
g3
Ntp5293
Rp5294
(dp5295
g7
S'22'
p5296
sg9
g10
sg11
S'21'
p5297
sb(I754
I0
I0
tp5298
sg1
(g2
g3
Ntp5299
Rp5300
(dp5301
g7
S'24'
p5302
sg9
g10
sg11
S'31'
p5303
sb(I0
I194
I0
tp5304
sg1
(g2
g3
Ntp5305
Rp5306
(dp5307
g7
S'26'
p5308
sg9
g10
sg11
S'26'
p5309
sb(I0
I470
I0
tp5310
sg1
(g2
g3
Ntp5311
Rp5312
(dp5313
g7
g106
sg9
g30
sg11
g78
sb(I0
I0
I28
tp5314
sg1
(g2
g3
Ntp5315
Rp5316
(dp5317
g7
g95
sg9
g25
sg11
g95
sb(I0
I0
I108
tp5318
sg1
(g2
g3
Ntp5319
Rp5320
(dp5321
g7
g63
sg9
g18
sg11
S'14'
p5322
sb(I0
I0
I31
tp5323
sg1
(g2
g3
Ntp5324
Rp5325
(dp5326
g7
g106
sg9
g10
sg11
S'15'
p5327
sb(I10
I19
I1
tp5328
sg1
(g2
g3
Ntp5329
Rp5330
(dp5331
g7
S'11'
p5332
sg9
g25
sg11
S'14'
p5333
sb(I0
I0
I395
tp5334
sg1
(g2
g3
Ntp5335
Rp5336
(dp5337
g7
S'11'
p5338
sg9
g18
sg11
S'12'
p5339
sb(I0
I0
I20
tp5340
sg1
(g2
g3
Ntp5341
Rp5342
(dp5343
g7
S'11'
p5344
sg9
g30
sg11
S'14'
p5345
sb(I0
I0
I1064
tp5346
sg1
(g2
g3
Ntp5347
Rp5348
(dp5349
g7
S'21'
p5350
sg9
g10
sg11
S'15'
p5351
sb(I0
I1094
I0
tp5352
sg1
(g2
g3
Ntp5353
Rp5354
(dp5355
g7
S'18'
p5356
sg9
g10
sg11
S'17'
p5357
sb(I0
I1363
I0
tp5358
sg1
(g2
g3
Ntp5359
Rp5360
(dp5361
g7
S'11'
p5362
sg9
g10
sg11
S'12'
p5363
sb(I3
I19
I1
tp5364
sg1
(g2
g3
Ntp5365
Rp5366
(dp5367
g7
S'26'
p5368
sg9
g10
sg11
g63
sb(I42
I0
I0
tp5369
sg1
(g2
g3
Ntp5370
Rp5371
(dp5372
g7
g106
sg9
g30
sg11
S'15'
p5373
sb(I0
I0
I1107
tp5374
sg1
(g2
g3
Ntp5375
Rp5376
(dp5377
g7
S'24'
p5378
sg9
g10
sg11
S'30'
p5379
sb(I0
I400
I0
tp5380
sg1
(g2
g3
Ntp5381
Rp5382
(dp5383
g7
S'20'
p5384
sg9
g10
sg11
S'17'
p5385
sb(I0
I1842
I0
tp5386
sg1
(g2
g3
Ntp5387
Rp5388
(dp5389
g7
S'11'
p5390
sg9
g30
sg11
S'12'
p5391
sb(I0
I0
I920
tp5392
sg1
(g2
g3
Ntp5393
Rp5394
(dp5395
g7
g106
sg9
g10
sg11
g12
sb(I1
I2
I0
tp5396
sg1
(g2
g3
Ntp5397
Rp5398
(dp5399
g7
g63
sg9
g30
sg11
S'14'
p5400
sb(I0
I0
I1060
tp5401
sg1
(g2
g3
Ntp5402
Rp5403
(dp5404
g7
S'25'
p5405
sg9
g10
sg11
S'16'
p5406
sb(I462
I0
I0
tp5407
sg1
(g2
g3
Ntp5408
Rp5409
(dp5410
g7
S'11'
p5411
sg9
g25
sg11
S'10'
p5412
sb(I0
I0
I208
tp5413
sg1
(g2
g3
Ntp5414
Rp5415
(dp5416
g7
g95
sg9
g10
sg11
g95
sb(I0
I2
I0
tp5417
sg1
(g2
g3
Ntp5418
Rp5419
(dp5420
g7
g106
sg9
g25
sg11
S'15'
p5421
sb(I0
I0
I398
tp5422
sg1
(g2
g3
Ntp5423
Rp5424
(dp5425
g7
S'11'
p5426
sg9
g25
sg11
g57
sb(I0
I0
I133
tp5427
s.