(dp0
ccopy_reg
_reconstructor
p1
(cRolloutKey
RolloutKey
p2
c__builtin__
object
p3
Ntp4
Rp5
(dp6
S'dealerScore'
p7
S'18'
p8
sS'moveName'
p9
S'Y'
p10
sS'playerScore'
p11
S'5'
p12
sb(I0
I277
I0
tp13
sg1
(g2
g3
Ntp14
Rp15
(dp16
g7
S'3'
p17
sg9
S'S'
p18
sg11
S'14'
p19
sb(I26
I58
I0
tp20
sg1
(g2
g3
Ntp21
Rp22
(dp23
g7
S'10'
p24
sg9
S'D'
p25
sg11
g12
sb(I510
I0
I0
tp26
sg1
(g2
g3
Ntp27
Rp28
(dp29
g7
g17
sg9
S'H'
p30
sg11
S'20'
p31
sb(I908
I2296
I0
tp32
sg1
(g2
g3
Ntp33
Rp34
(dp35
g7
S'11'
p36
sg9
g10
sg11
S'7'
p37
sb(I1
I2
I0
tp38
sg1
(g2
g3
Ntp39
Rp40
(dp41
g7
S'25'
p42
sg9
g10
sg11
S'13'
p43
sb(I1043
I0
I0
tp44
sg1
(g2
g3
Ntp45
Rp46
(dp47
g7
S'10'
p48
sg9
g30
sg11
g12
sb(I1075
I0
I0
tp49
sg1
(g2
g3
Ntp50
Rp51
(dp52
g7
g17
sg9
g25
sg11
S'20'
p53
sb(I314
I908
I0
tp54
sg1
(g2
g3
Ntp55
Rp56
(dp57
g7
g17
sg9
g10
sg11
S'8'
p58
sb(I5
I4
I0
tp59
sg1
(g2
g3
Ntp60
Rp61
(dp62
g7
S'25'
p63
sg9
g10
sg11
S'9'
p64
sb(I282
I0
I0
tp65
sg1
(g2
g3
Ntp66
Rp67
(dp68
g7
S'23'
p69
sg9
g10
sg11
S'6'
p70
sb(I190
I0
I0
tp71
sg1
(g2
g3
Ntp72
Rp73
(dp74
g7
S'19'
p75
sg9
g10
sg11
g58
sb(I0
I622
I0
tp76
sg1
(g2
g3
Ntp77
Rp78
(dp79
g7
g17
sg9
g10
sg11
S'20'
p80
sb(I91
I20
I0
tp81
sg1
(g2
g3
Ntp82
Rp83
(dp84
g7
S'2'
p85
sg9
g25
sg11
S'21'
p86
sb(I504
I0
I0
tp87
sg1
(g2
g3
Ntp88
Rp89
(dp90
g7
g17
sg9
g30
sg11
S'14'
p91
sb(I1623
I1093
I0
tp92
sg1
(g2
g3
Ntp93
Rp94
(dp95
g7
S'10'
p96
sg9
g10
sg11
g12
sb(I7
I9
I0
tp97
sg1
(g2
g3
Ntp98
Rp99
(dp100
g7
S'11'
p101
sg9
g25
sg11
g37
sb(I291
I0
I0
tp102
sg1
(g2
g3
Ntp103
Rp104
(dp105
g7
g17
sg9
g18
sg11
S'20'
p106
sb(I468
I1454
I0
tp107
sg1
(g2
g3
Ntp108
Rp109
(dp110
g7
S'17'
p111
sg9
g10
sg11
S'4'
p112
sb(I0
I162
I0
tp113
sg1
(g2
g3
Ntp114
Rp115
(dp116
g7
S'23'
p117
sg9
g10
sg11
S'24'
p118
sb(I0
I2245
I0
tp119
sg1
(g2
g3
Ntp120
Rp121
(dp122
g7
S'19'
p123
sg9
g10
sg11
S'19'
p124
sb(I0
I3394
I0
tp125
sg1
(g2
g3
Ntp126
Rp127
(dp128
g7
g12
sg9
g18
sg11
S'12'
p129
sb(I27
I77
I0
tp130
sg1
(g2
g3
Ntp131
Rp132
(dp133
g7
g112
sg9
g18
sg11
g85
sb(I58
I106
I0
tp134
sg1
(g2
g3
Ntp135
Rp136
(dp137
g7
g64
sg9
g18
sg11
g85
sb(I21
I65
I0
tp138
sg1
(g2
g3
Ntp139
Rp140
(dp141
g7
S'11'
p142
sg9
g25
sg11
g58
sb(I294
I0
I0
tp143
sg1
(g2
g3
Ntp144
Rp145
(dp146
g7
g12
sg9
g10
sg11
S'12'
p147
sb(I20
I24
I0
tp148
sg1
(g2
g3
Ntp149
Rp150
(dp151
g7
S'11'
p152
sg9
g30
sg11
g58
sb(I625
I0
I0
tp153
sg1
(g2
g3
Ntp154
Rp155
(dp156
g7
S'17'
p157
sg9
g10
sg11
S'31'
p158
sb(I0
I1025
I0
tp159
sg1
(g2
g3
Ntp160
Rp161
(dp162
g7
S'11'
p163
sg9
g10
sg11
S'27'
p164
sb(I0
I91
I0
tp165
sg1
(g2
g3
Ntp166
Rp167
(dp168
g7
S'11'
p169
sg9
g18
sg11
g58
sb(I5
I95
I0
tp170
sg1
(g2
g3
Ntp171
Rp172
(dp173
g7
g64
sg9
g25
sg11
g85
sb(I51
I0
I0
tp174
sg1
(g2
g3
Ntp175
Rp176
(dp177
g7
g112
sg9
g25
sg11
g85
sb(I52
I0
I0
tp178
sg1
(g2
g3
Ntp179
Rp180
(dp181
g7
g12
sg9
g25
sg11
S'12'
p182
sb(I685
I286
I0
tp183
sg1
(g2
g3
Ntp184
Rp185
(dp186
g7
g17
sg9
g10
sg11
S'13'
p187
sb(I19
I28
I0
tp188
sg1
(g2
g3
Ntp189
Rp190
(dp191
g7
g37
sg9
g30
sg11
g64
sb(I898
I0
I0
tp192
sg1
(g2
g3
Ntp193
Rp194
(dp195
g7
S'20'
p196
sg9
g10
sg11
S'26'
p197
sb(I0
I5060
I0
tp198
sg1
(g2
g3
Ntp199
Rp200
(dp201
g7
g112
sg9
g25
sg11
g12
sb(I110
I0
I0
tp202
sg1
(g2
g3
Ntp203
Rp204
(dp205
g7
S'25'
p206
sg9
g10
sg11
S'23'
p207
sb(I1
I1769
I0
tp208
sg1
(g2
g3
Ntp209
Rp210
(dp211
g7
g37
sg9
g25
sg11
g64
sb(I365
I0
I0
tp212
sg1
(g2
g3
Ntp213
Rp214
(dp215
g7
g64
sg9
g30
sg11
g85
sb(I61
I0
I0
tp216
sg1
(g2
g3
Ntp217
Rp218
(dp219
g7
S'22'
p220
sg9
g10
sg11
S'25'
p221
sb(I1
I2308
I0
tp222
sg1
(g2
g3
Ntp223
Rp224
(dp225
g7
g85
sg9
g10
sg11
S'18'
p226
sb(I27
I30
I0
tp227
sg1
(g2
g3
Ntp228
Rp229
(dp230
g7
S'24'
p231
sg9
g10
sg11
S'15'
p232
sb(I1302
I0
I0
tp233
sg1
(g2
g3
Ntp234
Rp235
(dp236
g7
g37
sg9
g30
sg11
g12
sb(I261
I0
I0
tp237
sg1
(g2
g3
Ntp238
Rp239
(dp240
g7
g70
sg9
g25
sg11
S'11'
p241
sb(I485
I0
I0
tp242
sg1
(g2
g3
Ntp243
Rp244
(dp245
g7
S'22'
p246
sg9
g10
sg11
S'18'
p247
sb(I1787
I0
I0
tp248
sg1
(g2
g3
Ntp249
Rp250
(dp251
g7
g70
sg9
g30
sg11
S'11'
p252
sb(I1213
I0
I0
tp253
sg1
(g2
g3
Ntp254
Rp255
(dp256
g7
g58
sg9
g30
sg11
g85
sb(I47
I0
I0
tp257
sg1
(g2
g3
Ntp258
Rp259
(dp260
g7
S'25'
p261
sg9
g10
sg11
S'30'
p262
sb(I0
I801
I0
tp263
sg1
(g2
g3
Ntp264
Rp265
(dp266
g7
g37
sg9
g25
sg11
g12
sb(I160
I0
I0
tp267
sg1
(g2
g3
Ntp268
Rp269
(dp270
g7
S'10'
p271
sg9
g10
sg11
S'23'
p272
sb(I0
I404
I0
tp273
sg1
(g2
g3
Ntp274
Rp275
(dp276
g7
g37
sg9
g10
sg11
g12
sb(I0
I2
I0
tp277
sg1
(g2
g3
Ntp278
Rp279
(dp280
g7
S'22'
p281
sg9
g10
sg11
S'24'
p282
sb(I1
I2596
I0
tp283
sg1
(g2
g3
Ntp284
Rp285
(dp286
g7
g64
sg9
g10
sg11
S'12'
p287
sb(I15
I32
I0
tp288
sg1
(g2
g3
Ntp289
Rp290
(dp291
g7
g70
sg9
g30
sg11
S'13'
p292
sb(I1805
I884
I0
tp293
sg1
(g2
g3
Ntp294
Rp295
(dp296
g7
g37
sg9
g10
sg11
S'25'
p297
sb(I0
I80
I0
tp298
sg1
(g2
g3
Ntp299
Rp300
(dp301
g7
g70
sg9
g10
sg11
S'11'
p302
sb(I10
I12
I0
tp303
sg1
(g2
g3
Ntp304
Rp305
(dp306
g7
g70
sg9
g25
sg11
S'13'
p307
sb(I687
I346
I0
tp308
sg1
(g2
g3
Ntp309
Rp310
(dp311
g7
S'18'
p312
sg9
g10
sg11
g37
sb(I1
I501
I0
tp313
sg1
(g2
g3
Ntp314
Rp315
(dp316
g7
S'23'
p317
sg9
g10
sg11
S'29'
p318
sb(I0
I1157
I0
tp319
sg1
(g2
g3
Ntp320
Rp321
(dp322
g7
g64
sg9
g18
sg11
S'12'
p323
sb(I21
I73
I0
tp324
sg1
(g2
g3
Ntp325
Rp326
(dp327
g7
g112
sg9
g18
sg11
S'18'
p328
sb(I29
I67
I0
tp329
sg1
(g2
g3
Ntp330
Rp331
(dp332
g7
S'26'
p333
sg9
g10
sg11
S'25'
p334
sb(I1
I1193
I0
tp335
sg1
(g2
g3
Ntp336
Rp337
(dp338
g7
g85
sg9
g10
sg11
S'23'
p339
sb(I0
I142
I0
tp340
sg1
(g2
g3
Ntp341
Rp342
(dp343
g7
g37
sg9
g25
sg11
S'20'
p344
sb(I311
I906
I0
tp345
sg1
(g2
g3
Ntp346
Rp347
(dp348
g7
S'20'
p349
sg9
g10
sg11
S'15'
p350
sb(I1
I4011
I0
tp351
sg1
(g2
g3
Ntp352
Rp353
(dp354
g7
g37
sg9
g18
sg11
S'14'
p355
sb(I30
I86
I0
tp356
sg1
(g2
g3
Ntp357
Rp358
(dp359
g7
g37
sg9
g30
sg11
S'20'
p360
sb(I885
I2244
I0
tp361
sg1
(g2
g3
Ntp362
Rp363
(dp364
g7
g12
sg9
g30
sg11
S'15'
p365
sb(I1459
I1210
I0
tp366
sg1
(g2
g3
Ntp367
Rp368
(dp369
g7
S'26'
p370
sg9
g10
sg11
S'12'
p371
sb(I740
I0
I0
tp372
sg1
(g2
g3
Ntp373
Rp374
(dp375
g7
S'11'
p376
sg9
g10
sg11
S'10'
p377
sb(I1
I8
I0
tp378
sg1
(g2
g3
Ntp379
Rp380
(dp381
g7
g37
sg9
g25
sg11
S'14'
p382
sb(I593
I374
I0
tp383
sg1
(g2
g3
Ntp384
Rp385
(dp386
g7
g37
sg9
g18
sg11
S'20'
p387
sb(I520
I1356
I0
tp388
sg1
(g2
g3
Ntp389
Rp390
(dp391
g7
g112
sg9
g18
sg11
g70
sb(I35
I71
I0
tp392
sg1
(g2
g3
Ntp393
Rp394
(dp395
g7
g37
sg9
g10
sg11
S'20'
p396
sb(I106
I12
I0
tp397
sg1
(g2
g3
Ntp398
Rp399
(dp400
g7
g17
sg9
g25
sg11
S'14'
p401
sb(I608
I382
I0
tp402
sg1
(g2
g3
Ntp403
Rp404
(dp405
g7
S'23'
p406
sg9
g10
sg11
S'22'
p407
sb(I1
I2637
I0
tp408
sg1
(g2
g3
Ntp409
Rp410
(dp411
g7
g37
sg9
g30
sg11
S'14'
p412
sb(I1577
I1108
I0
tp413
sg1
(g2
g3
Ntp414
Rp415
(dp416
g7
g85
sg9
g18
sg11
S'18'
p417
sb(I26
I96
I0
tp418
sg1
(g2
g3
Ntp419
Rp420
(dp421
g7
S'21'
p422
sg9
g10
sg11
S'23'
p423
sb(I0
I4562
I0
tp424
sg1
(g2
g3
Ntp425
Rp426
(dp427
g7
g12
sg9
g30
sg11
S'14'
p428
sb(I1589
I1067
I0
tp429
sg1
(g2
g3
Ntp430
Rp431
(dp432
g7
g12
sg9
g25
sg11
S'15'
p433
sb(I500
I347
I0
tp434
sg1
(g2
g3
Ntp435
Rp436
(dp437
g7
S'10'
p438
sg9
g18
sg11
g58
sb(I76
I354
I0
tp439
sg1
(g2
g3
Ntp440
Rp441
(dp442
g7
g64
sg9
g10
sg11
g37
sb(I2
I5
I0
tp443
sg1
(g2
g3
Ntp444
Rp445
(dp446
g7
S'21'
p447
sg9
g10
sg11
g12
sb(I0
I225
I0
tp448
sg1
(g2
g3
Ntp449
Rp450
(dp451
g7
g12
sg9
g18
sg11
g85
sb(I42
I84
I0
tp452
sg1
(g2
g3
Ntp453
Rp454
(dp455
g7
g17
sg9
g10
sg11
S'22'
p456
sb(I0
I127
I0
tp457
sg1
(g2
g3
Ntp458
Rp459
(dp460
g7
S'11'
p461
sg9
g30
sg11
g37
sb(I521
I0
I0
tp462
sg1
(g2
g3
Ntp463
Rp464
(dp465
g7
g12
sg9
g25
sg11
S'14'
p466
sb(I644
I367
I0
tp467
sg1
(g2
g3
Ntp468
Rp469
(dp470
g7
g64
sg9
g10
sg11
S'31'
p471
sb(I0
I16
I0
tp472
sg1
(g2
g3
Ntp473
Rp474
(dp475
g7
g12
sg9
g30
sg11
g85
sb(I56
I0
I0
tp476
sg1
(g2
g3
Ntp477
Rp478
(dp479
g7
g12
sg9
g10
sg11
S'14'
p480
sb(I18
I28
I0
tp481
sg1
(g2
g3
Ntp482
Rp483
(dp484
g7
S'19'
p485
sg9
g10
sg11
S'27'
p486
sb(I1
I3170
I0
tp487
sg1
(g2
g3
Ntp488
Rp489
(dp490
g7
g12
sg9
g18
sg11
S'14'
p491
sb(I29
I87
I0
tp492
sg1
(g2
g3
Ntp493
Rp494
(dp495
g7
g64
sg9
g25
sg11
g37
sb(I266
I0
I0
tp496
sg1
(g2
g3
Ntp497
Rp498
(dp499
g7
g112
sg9
g10
sg11
S'18'
p500
sb(I49
I20
I0
tp501
sg1
(g2
g3
Ntp502
Rp503
(dp504
g7
g12
sg9
g25
sg11
g85
sb(I51
I0
I0
tp505
sg1
(g2
g3
Ntp506
Rp507
(dp508
g7
S'10'
p509
sg9
g30
sg11
g58
sb(I2508
I0
I0
tp510
sg1
(g2
g3
Ntp511
Rp512
(dp513
g7
S'23'
p514
sg9
g10
sg11
g112
sb(I61
I0
I0
tp515
sg1
(g2
g3
Ntp516
Rp517
(dp518
g7
g17
sg9
g30
sg11
S'12'
p519
sb(I1698
I728
I0
tp520
sg1
(g2
g3
Ntp521
Rp522
(dp523
g7
S'24'
p524
sg9
g10
sg11
g37
sb(I230
I0
I0
tp525
sg1
(g2
g3
Ntp526
Rp527
(dp528
g7
S'20'
p529
sg9
g10
sg11
S'20'
p530
sb(I0
I6187
I0
tp531
sg1
(g2
g3
Ntp532
Rp533
(dp534
g7
S'10'
p535
sg9
g10
sg11
S'27'
p536
sb(I0
I322
I0
tp537
sg1
(g2
g3
Ntp538
Rp539
(dp540
g7
g12
sg9
g10
sg11
S'26'
p541
sb(I0
I78
I0
tp542
sg1
(g2
g3
Ntp543
Rp544
(dp545
g7
g17
sg9
g25
sg11
S'12'
p546
sb(I687
I275
I0
tp547
sg1
(g2
g3
Ntp548
Rp549
(dp550
g7
S'18'
p551
sg9
g10
sg11
g85
sb(I0
I108
I0
tp552
sg1
(g2
g3
Ntp553
Rp554
(dp555
g7
g12
sg9
g30
sg11
g37
sb(I530
I0
I0
tp556
sg1
(g2
g3
Ntp557
Rp558
(dp559
g7
g37
sg9
g10
sg11
g70
sb(I1
I1
I0
tp560
sg1
(g2
g3
Ntp561
Rp562
(dp563
g7
g17
sg9
g18
sg11
S'12'
p564
sb(I36
I66
I0
tp565
sg1
(g2
g3
Ntp566
Rp567
(dp568
g7
S'17'
p569
sg9
g10
sg11
S'17'
p570
sb(I0
I3549
I0
tp571
sg1
(g2
g3
Ntp572
Rp573
(dp574
g7
g58
sg9
g10
sg11
g37
sb(I2
I3
I0
tp575
sg1
(g2
g3
Ntp576
Rp577
(dp578
g7
g12
sg9
g25
sg11
g37
sb(I236
I0
I0
tp579
sg1
(g2
g3
Ntp580
Rp581
(dp582
g7
S'23'
p583
sg9
g10
sg11
S'18'
p584
sb(I1628
I0
I0
tp585
sg1
(g2
g3
Ntp586
Rp587
(dp588
g7
S'23'
p589
sg9
g10
sg11
S'30'
p590
sb(I0
I1058
I0
tp591
sg1
(g2
g3
Ntp592
Rp593
(dp594
g7
S'10'
p595
sg9
g30
sg11
S'11'
p596
sb(I4697
I0
I0
tp597
sg1
(g2
g3
Ntp598
Rp599
(dp600
g7
S'23'
p601
sg9
g10
sg11
g85
sb(I56
I0
I0
tp602
sg1
(g2
g3
Ntp603
Rp604
(dp605
g7
S'10'
p606
sg9
g25
sg11
S'11'
p607
sb(I2055
I0
I0
tp608
sg1
(g2
g3
Ntp609
Rp610
(dp611
g7
g58
sg9
g10
sg11
S'11'
p612
sb(I3
I18
I0
tp613
sg1
(g2
g3
Ntp614
Rp615
(dp616
g7
g85
sg9
g25
sg11
g64
sb(I379
I0
I0
tp617
sg1
(g2
g3
Ntp618
Rp619
(dp620
g7
S'23'
p621
sg9
g10
sg11
S'23'
p622
sb(I1
I2471
I0
tp623
sg1
(g2
g3
Ntp624
Rp625
(dp626
g7
S'26'
p627
sg9
g10
sg11
S'10'
p628
sb(I271
I0
I0
tp629
sg1
(g2
g3
Ntp630
Rp631
(dp632
g7
S'21'
p633
sg9
g10
sg11
g64
sb(I0
I760
I0
tp634
sg1
(g2
g3
Ntp635
Rp636
(dp637
g7
g58
sg9
g25
sg11
S'11'
p638
sb(I505
I0
I0
tp639
sg1
(g2
g3
Ntp640
Rp641
(dp642
g7
S'10'
p643
sg9
g10
sg11
S'11'
p644
sb(I12
I52
I0
tp645
sg1
(g2
g3
Ntp646
Rp647
(dp648
g7
S'11'
p649
sg9
g10
sg11
S'16'
p650
sb(I7
I43
I0
tp651
sg1
(g2
g3
Ntp652
Rp653
(dp654
g7
g58
sg9
g30
sg11
S'11'
p655
sb(I1134
I0
I0
tp656
sg1
(g2
g3
Ntp657
Rp658
(dp659
g7
S'17'
p660
sg9
g10
sg11
S'14'
p661
sb(I1
I3153
I0
tp662
sg1
(g2
g3
Ntp663
Rp664
(dp665
g7
g37
sg9
g10
sg11
S'13'
p666
sb(I9
I28
I0
tp667
sg1
(g2
g3
Ntp668
Rp669
(dp670
g7
g85
sg9
g10
sg11
S'12'
p671
sb(I21
I27
I0
tp672
sg1
(g2
g3
Ntp673
Rp674
(dp675
g7
g58
sg9
g10
sg11
S'12'
p676
sb(I10
I28
I0
tp677
sg1
(g2
g3
Ntp678
Rp679
(dp680
g7
g58
sg9
g10
sg11
S'29'
p681
sb(I0
I65
I0
tp682
sg1
(g2
g3
Ntp683
Rp684
(dp685
g7
g37
sg9
g10
sg11
g64
sb(I6
I8
I0
tp686
sg1
(g2
g3
Ntp687
Rp688
(dp689
g7
S'18'
p690
sg9
g10
sg11
g58
sb(I0
I655
I0
tp691
sg1
(g2
g3
Ntp692
Rp693
(dp694
g7
g12
sg9
g25
sg11
S'19'
p695
sb(I223
I412
I0
tp696
sg1
(g2
g3
Ntp697
Rp698
(dp699
g7
g17
sg9
g10
sg11
S'28'
p700
sb(I0
I73
I0
tp701
sg1
(g2
g3
Ntp702
Rp703
(dp704
g7
g64
sg9
g25
sg11
S'14'
p705
sb(I585
I376
I0
tp706
sg1
(g2
g3
Ntp707
Rp708
(dp709
g7
g12
sg9
g30
sg11
S'19'
p710
sb(I869
I2103
I0
tp711
sg1
(g2
g3
Ntp712
Rp713
(dp714
g7
g37
sg9
g10
sg11
S'22'
p715
sb(I0
I124
I0
tp716
sg1
(g2
g3
Ntp717
Rp718
(dp719
g7
g85
sg9
g25
sg11
S'18'
p720
sb(I285
I421
I0
tp721
sg1
(g2
g3
Ntp722
Rp723
(dp724
g7
S'24'
p725
sg9
g10
sg11
S'26'
p726
sb(I0
I1470
I0
tp727
sg1
(g2
g3
Ntp728
Rp729
(dp730
g7
g112
sg9
g10
sg11
S'31'
p731
sb(I0
I26
I0
tp732
sg1
(g2
g3
Ntp733
Rp734
(dp735
g7
g37
sg9
g25
sg11
g70
sb(I178
I0
I0
tp736
sg1
(g2
g3
Ntp737
Rp738
(dp739
g7
g12
sg9
g10
sg11
S'19'
p740
sb(I51
I26
I0
tp741
sg1
(g2
g3
Ntp742
Rp743
(dp744
g7
S'26'
p745
sg9
g10
sg11
S'15'
p746
sb(I867
I0
I0
tp747
sg1
(g2
g3
Ntp748
Rp749
(dp750
g7
g64
sg9
g18
sg11
S'14'
p751
sb(I32
I92
I0
tp752
sg1
(g2
g3
Ntp753
Rp754
(dp755
g7
g64
sg9
g18
sg11
g70
sb(I26
I100
I0
tp756
sg1
(g2
g3
Ntp757
Rp758
(dp759
g7
g70
sg9
g18
sg11
S'12'
p760
sb(I17
I67
I0
tp761
sg1
(g2
g3
Ntp762
Rp763
(dp764
g7
S'25'
p765
sg9
g10
sg11
S'24'
p766
sb(I0
I1681
I0
tp767
sg1
(g2
g3
Ntp768
Rp769
(dp770
g7
g17
sg9
g10
sg11
S'31'
p771
sb(I0
I27
I0
tp772
sg1
(g2
g3
Ntp773
Rp774
(dp775
g7
S'26'
p776
sg9
g10
sg11
S'23'
p777
sb(I3
I1487
I0
tp778
sg1
(g2
g3
Ntp779
Rp780
(dp781
g7
g12
sg9
g10
sg11
g12
sb(I6
I5
I0
tp782
sg1
(g2
g3
Ntp783
Rp784
(dp785
g7
S'18'
p786
sg9
g10
sg11
S'30'
p787
sb(I3
I2336
I0
tp788
sg1
(g2
g3
Ntp789
Rp790
(dp791
g7
S'24'
p792
sg9
g10
sg11
S'12'
p793
sb(I1016
I0
I0
tp794
sg1
(g2
g3
Ntp795
Rp796
(dp797
g7
g85
sg9
g18
sg11
S'12'
p798
sb(I25
I81
I0
tp799
sg1
(g2
g3
Ntp800
Rp801
(dp802
g7
g37
sg9
g10
sg11
S'31'
p803
sb(I0
I21
I0
tp804
sg1
(g2
g3
Ntp805
Rp806
(dp807
g7
g37
sg9
g30
sg11
g70
sb(I350
I0
I0
tp808
sg1
(g2
g3
Ntp809
Rp810
(dp811
g7
S'25'
p812
sg9
g10
sg11
S'29'
p813
sb(I1
I908
I0
tp814
sg1
(g2
g3
Ntp815
Rp816
(dp817
g7
S'19'
p818
sg9
g10
sg11
g37
sb(I0
I515
I0
tp819
sg1
(g2
g3
Ntp820
Rp821
(dp822
g7
S'11'
p823
sg9
g25
sg11
S'16'
p824
sb(I438
I365
I0
tp825
sg1
(g2
g3
Ntp826
Rp827
(dp828
g7
g85
sg9
g30
sg11
S'12'
p829
sb(I1633
I676
I0
tp830
sg1
(g2
g3
Ntp831
Rp832
(dp833
g7
S'25'
p834
sg9
g10
sg11
g70
sb(I120
I0
I0
tp835
sg1
(g2
g3
Ntp836
Rp837
(dp838
g7
S'11'
p839
sg9
g30
sg11
S'16'
p840
sb(I1273
I1446
I0
tp841
sg1
(g2
g3
Ntp842
Rp843
(dp844
g7
g85
sg9
g25
sg11
S'12'
p845
sb(I683
I293
I0
tp846
sg1
(g2
g3
Ntp847
Rp848
(dp849
g7
g58
sg9
g18
sg11
S'14'
p850
sb(I18
I72
I0
tp851
sg1
(g2
g3
Ntp852
Rp853
(dp854
g7
g64
sg9
g30
sg11
g17
sb(I1
I0
I0
tp855
sg1
(g2
g3
Ntp856
Rp857
(dp858
g7
S'25'
p859
sg9
g10
sg11
S'12'
p860
sb(I881
I0
I0
tp861
sg1
(g2
g3
Ntp862
Rp863
(dp864
g7
g112
sg9
g30
sg11
g37
sb(I536
I0
I0
tp865
sg1
(g2
g3
Ntp866
Rp867
(dp868
g7
g112
sg9
g25
sg11
g37
sb(I249
I0
I0
tp869
sg1
(g2
g3
Ntp870
Rp871
(dp872
g7
S'11'
p873
sg9
g10
sg11
g112
sb(I0
I2
I0
tp874
sg1
(g2
g3
Ntp875
Rp876
(dp877
g7
g70
sg9
g10
sg11
S'31'
p878
sb(I0
I21
I0
tp879
sg1
(g2
g3
Ntp880
Rp881
(dp882
g7
S'10'
p883
sg9
g10
sg11
S'31'
p884
sb(I0
I69
I0
tp885
sg1
(g2
g3
Ntp886
Rp887
(dp888
g7
g37
sg9
g25
sg11
S'12'
p889
sb(I680
I270
I0
tp890
sg1
(g2
g3
Ntp891
Rp892
(dp893
g7
S'21'
p894
sg9
g10
sg11
g70
sb(I0
I335
I0
tp895
sg1
(g2
g3
Ntp896
Rp897
(dp898
g7
g58
sg9
g25
sg11
S'14'
p899
sb(I571
I376
I0
tp900
sg1
(g2
g3
Ntp901
Rp902
(dp903
g7
g58
sg9
g30
sg11
S'14'
p904
sb(I1695
I1065
I0
tp905
sg1
(g2
g3
Ntp906
Rp907
(dp908
g7
S'26'
p909
sg9
g10
sg11
S'20'
p910
sb(I1324
I0
I0
tp911
sg1
(g2
g3
Ntp912
Rp913
(dp914
g7
g37
sg9
g30
sg11
S'12'
p915
sb(I1694
I666
I0
tp916
sg1
(g2
g3
Ntp917
Rp918
(dp919
g7
g70
sg9
g25
sg11
g64
sb(I384
I0
I0
tp920
sg1
(g2
g3
Ntp921
Rp922
(dp923
g7
S'11'
p924
sg9
g25
sg11
S'13'
p925
sb(I694
I325
I0
tp926
sg1
(g2
g3
Ntp927
Rp928
(dp929
g7
g112
sg9
g25
sg11
S'11'
p930
sb(I518
I0
I0
tp931
sg1
(g2
g3
Ntp932
Rp933
(dp934
g7
S'11'
p935
sg9
g30
sg11
S'11'
p936
sb(I1167
I0
I0
tp937
sg1
(g2
g3
Ntp938
Rp939
(dp940
g7
g12
sg9
g25
sg11
S'13'
p941
sb(I681
I328
I0
tp942
sg1
(g2
g3
Ntp943
Rp944
(dp945
g7
S'11'
p946
sg9
g30
sg11
S'13'
p947
sb(I1842
I915
I0
tp948
sg1
(g2
g3
Ntp949
Rp950
(dp951
g7
g112
sg9
g30
sg11
S'11'
p952
sb(I1220
I0
I0
tp953
sg1
(g2
g3
Ntp954
Rp955
(dp956
g7
S'11'
p957
sg9
g25
sg11
S'11'
p958
sb(I455
I0
I0
tp959
sg1
(g2
g3
Ntp960
Rp961
(dp962
g7
S'21'
p963
sg9
g10
sg11
S'21'
p964
sb(I0
I3295
I0
tp965
sg1
(g2
g3
Ntp966
Rp967
(dp968
g7
S'23'
p969
sg9
g10
sg11
S'16'
p970
sb(I1516
I0
I0
tp971
sg1
(g2
g3
Ntp972
Rp973
(dp974
g7
S'11'
p975
sg9
g10
sg11
S'11'
p976
sb(I1
I8
I0
tp977
sg1
(g2
g3
Ntp978
Rp979
(dp980
g7
g70
sg9
g10
sg11
S'25'
p981
sb(I0
I95
I0
tp982
sg1
(g2
g3
Ntp983
Rp984
(dp985
g7
g12
sg9
g30
sg11
g70
sb(I324
I0
I0
tp986
sg1
(g2
g3
Ntp987
Rp988
(dp989
g7
S'21'
p990
sg9
g10
sg11
S'29'
p991
sb(I0
I2176
I0
tp992
sg1
(g2
g3
Ntp993
Rp994
(dp995
g7
g12
sg9
g25
sg11
g70
sb(I178
I0
I0
tp996
sg1
(g2
g3
Ntp997
Rp998
(dp999
g7
S'11'
p1000
sg9
g10
sg11
S'13'
p1001
sb(I6
I45
I0
tp1002
sg1
(g2
g3
Ntp1003
Rp1004
(dp1005
g7
S'22'
p1006
sg9
g10
sg11
S'22'
p1007
sb(I0
I3046
I0
tp1008
sg1
(g2
g3
Ntp1009
Rp1010
(dp1011
g7
g58
sg9
g25
sg11
g112
sb(I67
I0
I0
tp1012
sg1
(g2
g3
Ntp1013
Rp1014
(dp1015
g7
S'22'
p1016
sg9
g10
sg11
S'15'
p1017
sb(I1665
I0
I0
tp1018
sg1
(g2
g3
Ntp1019
Rp1020
(dp1021
g7
g12
sg9
g10
sg11
S'22'
p1022
sb(I0
I141
I0
tp1023
sg1
(g2
g3
Ntp1024
Rp1025
(dp1026
g7
g64
sg9
g30
sg11
S'19'
p1027
sb(I910
I2066
I0
tp1028
sg1
(g2
g3
Ntp1029
Rp1030
(dp1031
g7
g112
sg9
g10
sg11
S'14'
p1032
sb(I18
I27
I0
tp1033
sg1
(g2
g3
Ntp1034
Rp1035
(dp1036
g7
S'20'
p1037
sg9
g10
sg11
S'12'
p1038
sb(I0
I3395
I0
tp1039
sg1
(g2
g3
Ntp1040
Rp1041
(dp1042
g7
g64
sg9
g25
sg11
S'19'
p1043
sb(I250
I389
I0
tp1044
sg1
(g2
g3
Ntp1045
Rp1046
(dp1047
g7
S'25'
p1048
sg9
g10
sg11
S'21'
p1049
sb(I1328
I0
I0
tp1050
sg1
(g2
g3
Ntp1051
Rp1052
(dp1053
g7
g58
sg9
g10
sg11
g112
sb(I0
I3
I0
tp1054
sg1
(g2
g3
Ntp1055
Rp1056
(dp1057
g7
S'19'
p1058
sg9
g10
sg11
S'13'
p1059
sb(I2
I2832
I0
tp1060
sg1
(g2
g3
Ntp1061
Rp1062
(dp1063
g7
g70
sg9
g10
sg11
g37
sb(I3
I2
I0
tp1064
sg1
(g2
g3
Ntp1065
Rp1066
(dp1067
g7
g64
sg9
g10
sg11
S'19'
p1068
sb(I28
I32
I0
tp1069
sg1
(g2
g3
Ntp1070
Rp1071
(dp1072
g7
g112
sg9
g30
sg11
S'14'
p1073
sb(I1575
I1074
I0
tp1074
sg1
(g2
g3
Ntp1075
Rp1076
(dp1077
g7
S'24'
p1078
sg9
g10
sg11
S'22'
p1079
sb(I2
I2370
I0
tp1080
sg1
(g2
g3
Ntp1081
Rp1082
(dp1083
g7
g112
sg9
g25
sg11
S'14'
p1084
sb(I577
I386
I0
tp1085
sg1
(g2
g3
Ntp1086
Rp1087
(dp1088
g7
S'21'
p1089
sg9
g10
sg11
S'18'
p1090
sb(I0
I3000
I0
tp1091
sg1
(g2
g3
Ntp1092
Rp1093
(dp1094
g7
g58
sg9
g10
sg11
S'26'
p1095
sb(I0
I80
I0
tp1096
sg1
(g2
g3
Ntp1097
Rp1098
(dp1099
g7
S'18'
p1100
sg9
g10
sg11
S'16'
p1101
sb(I3
I3228
I0
tp1102
sg1
(g2
g3
Ntp1103
Rp1104
(dp1105
g7
S'21'
p1106
sg9
g10
sg11
S'22'
p1107
sb(I0
I5002
I0
tp1108
sg1
(g2
g3
Ntp1109
Rp1110
(dp1111
g7
g70
sg9
g10
sg11
S'12'
p1112
sb(I17
I25
I0
tp1113
sg1
(g2
g3
Ntp1114
Rp1115
(dp1116
g7
g17
sg9
g18
sg11
g85
sb(I45
I73
I0
tp1117
sg1
(g2
g3
Ntp1118
Rp1119
(dp1120
g7
g58
sg9
g25
sg11
g64
sb(I384
I0
I0
tp1121
sg1
(g2
g3
Ntp1122
Rp1123
(dp1124
g7
S'11'
p1125
sg9
g30
sg11
g112
sb(I77
I0
I0
tp1126
sg1
(g2
g3
Ntp1127
Rp1128
(dp1129
g7
S'10'
p1130
sg9
g10
sg11
S'16'
p1131
sb(I46
I175
I0
tp1132
sg1
(g2
g3
Ntp1133
Rp1134
(dp1135
g7
g58
sg9
g30
sg11
S'18'
p1136
sb(I1018
I1808
I0
tp1137
sg1
(g2
g3
Ntp1138
Rp1139
(dp1140
g7
g58
sg9
g30
sg11
g64
sb(I813
I0
I0
tp1141
sg1
(g2
g3
Ntp1142
Rp1143
(dp1144
g7
g58
sg9
g25
sg11
S'18'
p1145
sb(I300
I411
I0
tp1146
sg1
(g2
g3
Ntp1147
Rp1148
(dp1149
g7
S'10'
p1150
sg9
g18
sg11
S'16'
p1151
sb(I68
I386
I0
tp1152
sg1
(g2
g3
Ntp1153
Rp1154
(dp1155
g7
S'11'
p1156
sg9
g18
sg11
g112
sb(I14
I106
I0
tp1157
sg1
(g2
g3
Ntp1158
Rp1159
(dp1160
g7
g85
sg9
g10
sg11
S'13'
p1161
sb(I17
I22
I0
tp1162
sg1
(g2
g3
Ntp1163
Rp1164
(dp1165
g7
g58
sg9
g10
sg11
S'27'
p1166
sb(I0
I92
I0
tp1167
sg1
(g2
g3
Ntp1168
Rp1169
(dp1170
g7
g70
sg9
g30
sg11
S'12'
p1171
sb(I1675
I676
I0
tp1172
sg1
(g2
g3
Ntp1173
Rp1174
(dp1175
g7
g17
sg9
g25
sg11
g85
sb(I55
I0
I0
tp1176
sg1
(g2
g3
Ntp1177
Rp1178
(dp1179
g7
g58
sg9
g10
sg11
S'18'
p1180
sb(I16
I50
I0
tp1181
sg1
(g2
g3
Ntp1182
Rp1183
(dp1184
g7
S'10'
p1185
sg9
g30
sg11
S'16'
p1186
sb(I5394
I5741
I0
tp1187
sg1
(g2
g3
Ntp1188
Rp1189
(dp1190
g7
g17
sg9
g30
sg11
g85
sb(I66
I0
I0
tp1191
sg1
(g2
g3
Ntp1192
Rp1193
(dp1194
g7
g64
sg9
g30
sg11
S'12'
p1195
sb(I1701
I668
I0
tp1196
sg1
(g2
g3
Ntp1197
Rp1198
(dp1199
g7
S'11'
p1200
sg9
g25
sg11
g112
sb(I53
I0
I0
tp1201
sg1
(g2
g3
Ntp1202
Rp1203
(dp1204
g7
S'10'
p1205
sg9
g25
sg11
S'16'
p1206
sb(I1619
I1631
I0
tp1207
sg1
(g2
g3
Ntp1208
Rp1209
(dp1210
g7
g58
sg9
g18
sg11
S'18'
p1211
sb(I35
I91
I0
tp1212
sg1
(g2
g3
Ntp1213
Rp1214
(dp1215
g7
g70
sg9
g25
sg11
S'12'
p1216
sb(I697
I316
I0
tp1217
sg1
(g2
g3
Ntp1218
Rp1219
(dp1220
g7
S'22'
p1221
sg9
g10
sg11
S'20'
p1222
sb(I2348
I0
I0
tp1223
sg1
(g2
g3
Ntp1224
Rp1225
(dp1226
g7
S'17'
p1227
sg9
g10
sg11
g37
sb(I0
I491
I0
tp1228
sg1
(g2
g3
Ntp1229
Rp1230
(dp1231
g7
S'25'
p1232
sg9
g10
sg11
S'22'
p1233
sb(I2
I1972
I0
tp1234
sg1
(g2
g3
Ntp1235
Rp1236
(dp1237
g7
S'10'
p1238
sg9
g25
sg11
g112
sb(I245
I0
I0
tp1239
sg1
(g2
g3
Ntp1240
Rp1241
(dp1242
g7
g70
sg9
g18
sg11
g85
sb(I33
I63
I0
tp1243
sg1
(g2
g3
Ntp1244
Rp1245
(dp1246
g7
S'10'
p1247
sg9
g30
sg11
g112
sb(I344
I0
I0
tp1248
sg1
(g2
g3
Ntp1249
Rp1250
(dp1251
g7
S'22'
p1252
sg9
g10
sg11
g64
sb(I436
I0
I0
tp1253
sg1
(g2
g3
Ntp1254
Rp1255
(dp1256
g7
g37
sg9
g18
sg11
g85
sb(I34
I68
I0
tp1257
sg1
(g2
g3
Ntp1258
Rp1259
(dp1260
g7
S'10'
p1261
sg9
g18
sg11
g112
sb(I77
I349
I0
tp1262
sg1
(g2
g3
Ntp1263
Rp1264
(dp1265
g7
g64
sg9
g25
sg11
S'12'
p1266
sb(I671
I281
I0
tp1267
sg1
(g2
g3
Ntp1268
Rp1269
(dp1270
g7
g37
sg9
g30
sg11
g85
sb(I56
I0
I0
tp1271
sg1
(g2
g3
Ntp1272
Rp1273
(dp1274
g7
g37
sg9
g10
sg11
S'29'
p1275
sb(I0
I64
I0
tp1276
sg1
(g2
g3
Ntp1277
Rp1278
(dp1279
g7
S'17'
p1280
sg9
g10
sg11
g12
sb(I0
I275
I0
tp1281
sg1
(g2
g3
Ntp1282
Rp1283
(dp1284
g7
g37
sg9
g25
sg11
g85
sb(I66
I0
I0
tp1285
sg1
(g2
g3
Ntp1286
Rp1287
(dp1288
g7
g17
sg9
g30
sg11
g70
sb(I339
I0
I0
tp1289
sg1
(g2
g3
Ntp1290
Rp1291
(dp1292
g7
S'10'
p1293
sg9
g10
sg11
g112
sb(I1
I9
I0
tp1294
sg1
(g2
g3
Ntp1295
Rp1296
(dp1297
g7
S'19'
p1298
sg9
g10
sg11
g112
sb(I0
I142
I0
tp1299
sg1
(g2
g3
Ntp1300
Rp1301
(dp1302
g7
g17
sg9
g10
sg11
S'19'
p1303
sb(I50
I21
I0
tp1304
sg1
(g2
g3
Ntp1305
Rp1306
(dp1307
g7
S'10'
p1308
sg9
g30
sg11
S'10'
p1309
sb(I3817
I0
I0
tp1310
sg1
(g2
g3
Ntp1311
Rp1312
(dp1313
g7
S'18'
p1314
sg9
g10
sg11
S'14'
p1315
sb(I0
I3108
I0
tp1316
sg1
(g2
g3
Ntp1317
Rp1318
(dp1319
g7
S'18'
p1320
sg9
g10
sg11
S'10'
p1321
sb(I1
I1001
I0
tp1322
sg1
(g2
g3
Ntp1323
Rp1324
(dp1325
g7
g112
sg9
g10
sg11
g70
sb(I2
I2
I0
tp1326
sg1
(g2
g3
Ntp1327
Rp1328
(dp1329
g7
S'19'
p1330
sg9
g10
sg11
S'31'
p1331
sb(I1
I1027
I0
tp1332
sg1
(g2
g3
Ntp1333
Rp1334
(dp1335
g7
S'10'
p1336
sg9
g25
sg11
S'10'
p1337
sb(I1684
I0
I0
tp1338
sg1
(g2
g3
Ntp1339
Rp1340
(dp1341
g7
g70
sg9
g10
sg11
g17
sb(I1
I0
I0
tp1342
sg1
(g2
g3
Ntp1343
Rp1344
(dp1345
g7
g64
sg9
g10
sg11
g112
sb(I1
I2
I0
tp1346
sg1
(g2
g3
Ntp1347
Rp1348
(dp1349
g7
S'10'
p1350
sg9
g10
sg11
S'10'
p1351
sb(I11
I33
I0
tp1352
sg1
(g2
g3
Ntp1353
Rp1354
(dp1355
g7
g17
sg9
g30
sg11
S'19'
p1356
sb(I881
I2106
I0
tp1357
sg1
(g2
g3
Ntp1358
Rp1359
(dp1360
g7
g58
sg9
g10
sg11
g58
sb(I0
I10
I0
tp1361
sg1
(g2
g3
Ntp1362
Rp1363
(dp1364
g7
S'10'
p1365
sg9
g18
sg11
S'10'
p1366
sb(I81
I405
I0
tp1367
sg1
(g2
g3
Ntp1368
Rp1369
(dp1370
g7
S'23'
p1371
sg9
g10
sg11
g64
sb(I428
I0
I0
tp1372
sg1
(g2
g3
Ntp1373
Rp1374
(dp1375
g7
g17
sg9
g25
sg11
S'19'
p1376
sb(I215
I446
I0
tp1377
sg1
(g2
g3
Ntp1378
Rp1379
(dp1380
g7
S'22'
p1381
sg9
g10
sg11
S'23'
p1382
sb(I2
I2818
I0
tp1383
sg1
(g2
g3
Ntp1384
Rp1385
(dp1386
g7
S'25'
p1387
sg9
g10
sg11
S'18'
p1388
sb(I1207
I0
I0
tp1389
sg1
(g2
g3
Ntp1390
Rp1391
(dp1392
g7
g58
sg9
g18
sg11
g85
sb(I27
I69
I0
tp1393
sg1
(g2
g3
Ntp1394
Rp1395
(dp1396
g7
S'21'
p1397
sg9
g10
sg11
S'12'
p1398
sb(I0
I2171
I0
tp1399
sg1
(g2
g3
Ntp1400
Rp1401
(dp1402
g7
S'11'
p1403
sg9
g25
sg11
S'17'
p1404
sb(I336
I443
I0
tp1405
sg1
(g2
g3
Ntp1406
Rp1407
(dp1408
g7
S'11'
p1409
sg9
g30
sg11
S'17'
p1410
sb(I1221
I1575
I0
tp1411
sg1
(g2
g3
Ntp1412
Rp1413
(dp1414
g7
S'26'
p1415
sg9
g10
sg11
g58
sb(I169
I0
I0
tp1416
sg1
(g2
g3
Ntp1417
Rp1418
(dp1419
g7
g17
sg9
g10
sg11
S'29'
p1420
sb(I0
I59
I0
tp1421
sg1
(g2
g3
Ntp1422
Rp1423
(dp1424
g7
S'10'
p1425
sg9
g10
sg11
S'30'
p1426
sb(I0
I322
I0
tp1427
sg1
(g2
g3
Ntp1428
Rp1429
(dp1430
g7
g85
sg9
g10
sg11
g17
sbg1342
sg1
(g2
g3
Ntp1431
Rp1432
(dp1433
g7
S'11'
p1434
sg9
g10
sg11
S'17'
p1435
sb(I9
I44
I0
tp1436
sg1
(g2
g3
Ntp1437
Rp1438
(dp1439
g7
S'10'
p1440
sg9
g10
sg11
S'29'
p1441
sb(I0
I247
I0
tp1442
sg1
(g2
g3
Ntp1443
Rp1444
(dp1445
g7
g58
sg9
g10
sg11
S'31'
p1446
sb(I0
I15
I0
tp1447
sg1
(g2
g3
Ntp1448
Rp1449
(dp1450
g7
S'19'
p1451
sg9
g10
sg11
S'17'
p1452
sb(I1
I3082
I0
tp1453
sg1
(g2
g3
Ntp1454
Rp1455
(dp1456
g7
S'10'
p1457
sg9
g25
sg11
g58
sb(I1256
I0
I0
tp1458
sg1
(g2
g3
Ntp1459
Rp1460
(dp1461
g7
S'23'
p1462
sg9
g10
sg11
S'21'
p1463
sb(I1819
I0
I0
tp1464
sg1
(g2
g3
Ntp1465
Rp1466
(dp1467
g7
S'17'
p1468
sg9
g10
sg11
S'26'
p1469
sb(I1
I4049
I0
tp1470
sg1
(g2
g3
Ntp1471
Rp1472
(dp1473
g7
g70
sg9
g10
sg11
S'26'
p1474
sb(I0
I74
I0
tp1475
sg1
(g2
g3
Ntp1476
Rp1477
(dp1478
g7
S'18'
p1479
sg9
g10
sg11
S'25'
p1480
sb(I1
I4271
I0
tp1481
sg1
(g2
g3
Ntp1482
Rp1483
(dp1484
g7
S'19'
p1485
sg9
g10
sg11
g17
sb(I0
I1
I0
tp1486
sg1
(g2
g3
Ntp1487
Rp1488
(dp1489
g7
S'23'
p1490
sg9
g10
sg11
S'20'
p1491
sb(I2182
I0
I0
tp1492
sg1
(g2
g3
Ntp1493
Rp1494
(dp1495
g7
g12
sg9
g10
sg11
S'10'
p1496
sb(I4
I5
I0
tp1497
sg1
(g2
g3
Ntp1498
Rp1499
(dp1500
g7
S'10'
p1501
sg9
g10
sg11
S'25'
p1502
sb(I0
I377
I0
tp1503
sg1
(g2
g3
Ntp1504
Rp1505
(dp1506
g7
g64
sg9
g10
sg11
S'27'
p1507
sb(I0
I77
I0
tp1508
sg1
(g2
g3
Ntp1509
Rp1510
(dp1511
g7
g70
sg9
g10
sg11
S'24'
p1512
sb(I0
I107
I0
tp1513
sg1
(g2
g3
Ntp1514
Rp1515
(dp1516
g7
S'23'
p1517
sg9
g10
sg11
S'12'
p1518
sb(I1158
I0
I0
tp1519
sg1
(g2
g3
Ntp1520
Rp1521
(dp1522
g7
g17
sg9
g10
sg11
S'26'
p1523
sb(I0
I95
I0
tp1524
sg1
(g2
g3
Ntp1525
Rp1526
(dp1527
g7
S'21'
p1528
sg9
g10
sg11
S'27'
p1529
sb(I0
I2922
I0
tp1530
sg1
(g2
g3
Ntp1531
Rp1532
(dp1533
g7
S'18'
p1534
sg9
g10
sg11
S'28'
p1535
sb(I1
I2842
I0
tp1536
sg1
(g2
g3
Ntp1537
Rp1538
(dp1539
g7
S'10'
p1540
sg9
g10
sg11
S'17'
p1541
sb(I58
I183
I0
tp1542
sg1
(g2
g3
Ntp1543
Rp1544
(dp1545
g7
S'25'
p1546
sg9
g10
sg11
S'20'
p1547
sb(I1569
I0
I0
tp1548
sg1
(g2
g3
Ntp1549
Rp1550
(dp1551
g7
g37
sg9
g10
sg11
S'21'
p1552
sb(I78
I9
I0
tp1553
sg1
(g2
g3
Ntp1554
Rp1555
(dp1556
g7
g37
sg9
g25
sg11
S'21'
p1557
sb(I569
I0
I0
tp1558
sg1
(g2
g3
Ntp1559
Rp1560
(dp1561
g7
S'10'
p1562
sg9
g30
sg11
S'17'
p1563
sb(I4808
I6620
I0
tp1564
sg1
(g2
g3
Ntp1565
Rp1566
(dp1567
g7
S'19'
p1568
sg9
g10
sg11
S'25'
p1569
sb(I0
I4125
I0
tp1570
sg1
(g2
g3
Ntp1571
Rp1572
(dp1573
g7
S'10'
p1574
sg9
g25
sg11
S'17'
p1575
sb(I1446
I1716
I0
tp1576
sg1
(g2
g3
Ntp1577
Rp1578
(dp1579
g7
g37
sg9
g10
sg11
S'26'
p1580
sb(I0
I100
I0
tp1581
sg1
(g2
g3
Ntp1582
Rp1583
(dp1584
g7
g37
sg9
g30
sg11
S'21'
p1585
sb(I1290
I1724
I0
tp1586
sg1
(g2
g3
Ntp1587
Rp1588
(dp1589
g7
g12
sg9
g10
sg11
g58
sb(I1
I7
I0
tp1590
sg1
(g2
g3
Ntp1591
Rp1592
(dp1593
g7
g112
sg9
g25
sg11
g64
sb(I362
I0
I0
tp1594
sg1
(g2
g3
Ntp1595
Rp1596
(dp1597
g7
g112
sg9
g30
sg11
S'10'
p1598
sb(I901
I0
I0
tp1599
sg1
(g2
g3
Ntp1600
Rp1601
(dp1602
g7
g85
sg9
g10
sg11
S'19'
p1603
sb(I33
I20
I0
tp1604
sg1
(g2
g3
Ntp1605
Rp1606
(dp1607
g7
S'26'
p1608
sg9
g10
sg11
g64
sb(I251
I0
I0
tp1609
sg1
(g2
g3
Ntp1610
Rp1611
(dp1612
g7
g64
sg9
g10
sg11
S'21'
p1613
sb(I76
I5
I0
tp1614
sg1
(g2
g3
Ntp1615
Rp1616
(dp1617
g7
g112
sg9
g30
sg11
g64
sb(I885
I0
I0
tp1618
sg1
(g2
g3
Ntp1619
Rp1620
(dp1621
g7
g112
sg9
g25
sg11
S'10'
p1622
sb(I446
I0
I0
tp1623
sg1
(g2
g3
Ntp1624
Rp1625
(dp1626
g7
g37
sg9
g10
sg11
S'15'
p1627
sb(I13
I30
I0
tp1628
sg1
(g2
g3
Ntp1629
Rp1630
(dp1631
g7
g64
sg9
g25
sg11
S'11'
p1632
sb(I493
I0
I0
tp1633
sg1
(g2
g3
Ntp1634
Rp1635
(dp1636
g7
g85
sg9
g30
sg11
S'19'
p1637
sb(I876
I2045
I0
tp1638
sg1
(g2
g3
Ntp1639
Rp1640
(dp1641
g7
g85
sg9
g25
sg11
S'19'
p1642
sb(I236
I371
I0
tp1643
sg1
(g2
g3
Ntp1644
Rp1645
(dp1646
g7
S'18'
p1647
sg9
g10
sg11
S'31'
p1648
sb(I0
I1020
I0
tp1649
sg1
(g2
g3
Ntp1650
Rp1651
(dp1652
g7
g112
sg9
g10
sg11
g64
sb(I9
I5
I0
tp1653
sg1
(g2
g3
Ntp1654
Rp1655
(dp1656
g7
S'20'
p1657
sg9
g10
sg11
g17
sb(I0
I2
I0
tp1658
sg1
(g2
g3
Ntp1659
Rp1660
(dp1661
g7
g37
sg9
g25
sg11
S'19'
p1662
sb(I238
I426
I0
tp1663
sg1
(g2
g3
Ntp1664
Rp1665
(dp1666
g7
g64
sg9
g30
sg11
g112
sb(I77
I0
I0
tp1667
sg1
(g2
g3
Ntp1668
Rp1669
(dp1670
g7
S'20'
p1671
sg9
g10
sg11
g85
sb(I0
I153
I0
tp1672
sg1
(g2
g3
Ntp1673
Rp1674
(dp1675
g7
S'10'
p1676
sg9
g18
sg11
S'14'
p1677
sb(I109
I465
I0
tp1678
sg1
(g2
g3
Ntp1679
Rp1680
(dp1681
g7
g70
sg9
g30
sg11
g37
sb(I539
I0
I0
tp1682
sg1
(g2
g3
Ntp1683
Rp1684
(dp1685
g7
g37
sg9
g10
sg11
S'28'
p1686
sb(I0
I69
I0
tp1687
sg1
(g2
g3
Ntp1688
Rp1689
(dp1690
g7
g37
sg9
g30
sg11
S'19'
p1691
sb(I937
I2059
I0
tp1692
sg1
(g2
g3
Ntp1693
Rp1694
(dp1695
g7
g112
sg9
g18
sg11
g112
sb(I34
I76
I0
tp1696
sg1
(g2
g3
Ntp1697
Rp1698
(dp1699
g7
S'17'
p1700
sg9
g10
sg11
S'11'
p1701
sb(I0
I1233
I0
tp1702
sg1
(g2
g3
Ntp1703
Rp1704
(dp1705
g7
S'10'
p1706
sg9
g25
sg11
S'14'
p1707
sb(I2296
I1449
I0
tp1708
sg1
(g2
g3
Ntp1709
Rp1710
(dp1711
g7
S'18'
p1712
sg9
g10
sg11
g112
sb(I0
I140
I0
tp1713
sg1
(g2
g3
Ntp1714
Rp1715
(dp1716
g7
g112
sg9
g30
sg11
g112
sb(I95
I0
I0
tp1717
sg1
(g2
g3
Ntp1718
Rp1719
(dp1720
g7
g112
sg9
g25
sg11
g112
sb(I84
I0
I0
tp1721
sg1
(g2
g3
Ntp1722
Rp1723
(dp1724
g7
g37
sg9
g10
sg11
S'19'
p1725
sb(I42
I12
I0
tp1726
sg1
(g2
g3
Ntp1727
Rp1728
(dp1729
g7
S'10'
p1730
sg9
g30
sg11
S'14'
p1731
sb(I6438
I4194
I0
tp1732
sg1
(g2
g3
Ntp1733
Rp1734
(dp1735
g7
g37
sg9
g18
sg11
S'18'
p1736
sb(I43
I79
I0
tp1737
sg1
(g2
g3
Ntp1738
Rp1739
(dp1740
g7
g64
sg9
g18
sg11
g112
sb(I40
I82
I0
tp1741
sg1
(g2
g3
Ntp1742
Rp1743
(dp1744
g7
g70
sg9
g25
sg11
S'18'
p1745
sb(I291
I388
I0
tp1746
sg1
(g2
g3
Ntp1747
Rp1748
(dp1749
g7
S'11'
p1750
sg9
g25
sg11
S'15'
p1751
sb(I489
I387
I0
tp1752
sg1
(g2
g3
Ntp1753
Rp1754
(dp1755
g7
S'11'
p1756
sg9
g30
sg11
g12
sb(I303
I0
I0
tp1757
sg1
(g2
g3
Ntp1758
Rp1759
(dp1760
g7
S'11'
p1761
sg9
g25
sg11
g12
sb(I116
I0
I0
tp1762
sg1
(g2
g3
Ntp1763
Rp1764
(dp1765
g7
g58
sg9
g10
sg11
S'24'
p1766
sb(I0
I99
I0
tp1767
sg1
(g2
g3
Ntp1768
Rp1769
(dp1770
g7
S'24'
p1771
sg9
g10
sg11
g64
sb(I322
I0
I0
tp1772
sg1
(g2
g3
Ntp1773
Rp1774
(dp1775
g7
g70
sg9
g30
sg11
S'18'
p1776
sb(I988
I1823
I0
tp1777
sg1
(g2
g3
Ntp1778
Rp1779
(dp1780
g7
S'11'
p1781
sg9
g30
sg11
S'15'
p1782
sb(I1518
I1307
I0
tp1783
sg1
(g2
g3
Ntp1784
Rp1785
(dp1786
g7
S'11'
p1787
sg9
g10
sg11
S'24'
p1788
sb(I0
I122
I0
tp1789
sg1
(g2
g3
Ntp1790
Rp1791
(dp1792
g7
S'11'
p1793
sg9
g10
sg11
g12
sb(I1
I5
I0
tp1794
sg1
(g2
g3
Ntp1795
Rp1796
(dp1797
g7
g70
sg9
g18
sg11
S'18'
p1798
sb(I39
I81
I0
tp1799
sg1
(g2
g3
Ntp1800
Rp1801
(dp1802
g7
S'22'
p1803
sg9
g10
sg11
g58
sb(I347
I0
I0
tp1804
sg1
(g2
g3
Ntp1805
Rp1806
(dp1807
g7
g70
sg9
g10
sg11
S'18'
p1808
sb(I42
I18
I0
tp1809
sg1
(g2
g3
Ntp1810
Rp1811
(dp1812
g7
g17
sg9
g10
sg11
S'25'
p1813
sb(I0
I87
I0
tp1814
sg1
(g2
g3
Ntp1815
Rp1816
(dp1817
g7
S'11'
p1818
sg9
g10
sg11
S'15'
p1819
sb(I4
I44
I0
tp1820
sg1
(g2
g3
Ntp1821
Rp1822
(dp1823
g7
g58
sg9
g30
sg11
S'13'
p1824
sb(I1811
I900
I0
tp1825
sg1
(g2
g3
Ntp1826
Rp1827
(dp1828
g7
g112
sg9
g10
sg11
S'12'
p1829
sb(I14
I31
I0
tp1830
sg1
(g2
g3
Ntp1831
Rp1832
(dp1833
g7
S'24'
p1834
sg9
g10
sg11
S'19'
p1835
sb(I1432
I0
I0
tp1836
sg1
(g2
g3
Ntp1837
Rp1838
(dp1839
g7
S'18'
p1840
sg9
g10
sg11
S'19'
p1841
sb(I3483
I0
I0
tp1842
sg1
(g2
g3
Ntp1843
Rp1844
(dp1845
g7
g17
sg9
g10
sg11
g64
sb(I3
I6
I0
tp1846
sg1
(g2
g3
Ntp1847
Rp1848
(dp1849
g7
g112
sg9
g18
sg11
S'12'
p1850
sb(I31
I97
I0
tp1851
sg1
(g2
g3
Ntp1852
Rp1853
(dp1854
g7
g85
sg9
g30
sg11
g85
sb(I60
I0
I0
tp1855
sg1
(g2
g3
Ntp1856
Rp1857
(dp1858
g7
S'19'
p1859
sg9
g10
sg11
S'26'
p1860
sb(I0
I3613
I0
tp1861
sg1
(g2
g3
Ntp1862
Rp1863
(dp1864
g7
g112
sg9
g30
sg11
S'12'
p1865
sb(I1742
I672
I0
tp1866
sg1
(g2
g3
Ntp1867
Rp1868
(dp1869
g7
g17
sg9
g25
sg11
g64
sb(I390
I0
I0
tp1870
sg1
(g2
g3
Ntp1871
Rp1872
(dp1873
g7
g112
sg9
g25
sg11
S'12'
p1874
sb(I695
I299
I0
tp1875
sg1
(g2
g3
Ntp1876
Rp1877
(dp1878
g7
S'26'
p1879
sg9
g10
sg11
S'13'
p1880
sb(I807
I0
I0
tp1881
sg1
(g2
g3
Ntp1882
Rp1883
(dp1884
g7
g17
sg9
g30
sg11
g64
sb(I842
I0
I0
tp1885
sg1
(g2
g3
Ntp1886
Rp1887
(dp1888
g7
S'19'
p1889
sg9
g10
sg11
g12
sb(I0
I263
I0
tp1890
sg1
(g2
g3
Ntp1891
Rp1892
(dp1893
g7
S'19'
p1894
sg9
g10
sg11
S'28'
p1895
sb(I2
I2728
I0
tp1896
sg1
(g2
g3
Ntp1897
Rp1898
(dp1899
g7
S'24'
p1900
sg9
g10
sg11
S'23'
p1901
sb(I1
I2231
I0
tp1902
sg1
(g2
g3
Ntp1903
Rp1904
(dp1905
g7
g58
sg9
g30
sg11
S'12'
p1906
sb(I1652
I705
I0
tp1907
sg1
(g2
g3
Ntp1908
Rp1909
(dp1910
g7
g37
sg9
g18
sg11
g70
sb(I26
I92
I0
tp1911
sg1
(g2
g3
Ntp1912
Rp1913
(dp1914
g7
g12
sg9
g30
sg11
S'18'
p1915
sb(I1046
I1823
I0
tp1916
sg1
(g2
g3
Ntp1917
Rp1918
(dp1919
g7
S'25'
p1920
sg9
g10
sg11
S'27'
p1921
sb(I0
I1180
I0
tp1922
sg1
(g2
g3
Ntp1923
Rp1924
(dp1925
g7
g17
sg9
g10
sg11
S'21'
p1926
sb(I55
I4
I0
tp1927
sg1
(g2
g3
Ntp1928
Rp1929
(dp1930
g7
S'11'
p1931
sg9
g10
sg11
S'30'
p1932
sb(I0
I88
I0
tp1933
sg1
(g2
g3
Ntp1934
Rp1935
(dp1936
g7
g58
sg9
g25
sg11
S'12'
p1937
sb(I681
I264
I0
tp1938
sg1
(g2
g3
Ntp1939
Rp1940
(dp1941
g7
S'11'
p1942
sg9
g25
sg11
g17
sbg855
sg1
(g2
g3
Ntp1943
Rp1944
(dp1945
g7
g70
sg9
g30
sg11
S'19'
p1946
sb(I890
I2027
I0
tp1947
sg1
(g2
g3
Ntp1948
Rp1949
(dp1950
g7
g64
sg9
g25
sg11
g70
sb(I196
I0
I0
tp1951
sg1
(g2
g3
Ntp1952
Rp1953
(dp1954
g7
S'11'
p1955
sg9
g30
sg11
g17
sb(I3
I0
I0
tp1956
sg1
(g2
g3
Ntp1957
Rp1958
(dp1959
g7
g17
sg9
g25
sg11
S'21'
p1960
sb(I535
I0
I0
tp1961
sg1
(g2
g3
Ntp1962
Rp1963
(dp1964
g7
g17
sg9
g30
sg11
S'21'
p1965
sb(I1323
I1790
I0
tp1966
sg1
(g2
g3
Ntp1967
Rp1968
(dp1969
g7
g58
sg9
g18
sg11
S'12'
p1970
sb(I25
I83
I0
tp1971
sg1
(g2
g3
Ntp1972
Rp1973
(dp1974
g7
g70
sg9
g25
sg11
S'19'
p1975
sb(I231
I435
I0
tp1976
sg1
(g2
g3
Ntp1977
Rp1978
(dp1979
g7
g12
sg9
g25
sg11
S'18'
p1980
sb(I285
I435
I0
tp1981
sg1
(g2
g3
Ntp1982
Rp1983
(dp1984
g7
g17
sg9
g25
sg11
S'11'
p1985
sb(I495
I0
I0
tp1986
sg1
(g2
g3
Ntp1987
Rp1988
(dp1989
g7
S'24'
p1990
sg9
g10
sg11
g85
sb(I45
I0
I0
tp1991
sg1
(g2
g3
Ntp1992
Rp1993
(dp1994
g7
S'10'
p1995
sg9
g25
sg11
S'19'
p1996
sb(I918
I1607
I0
tp1997
sg1
(g2
g3
Ntp1998
Rp1999
(dp2000
g7
S'20'
p2001
sg9
g10
sg11
S'23'
p2002
sb(I0
I6765
I0
tp2003
sg1
(g2
g3
Ntp2004
Rp2005
(dp2006
g7
g112
sg9
g10
sg11
S'21'
p2007
sb(I71
I6
I0
tp2008
sg1
(g2
g3
Ntp2009
Rp2010
(dp2011
g7
S'17'
p2012
sg9
g10
sg11
S'16'
p2013
sb(I0
I3346
I0
tp2014
sg1
(g2
g3
Ntp2015
Rp2016
(dp2017
g7
g112
sg9
g10
sg11
g37
sb(I5
I7
I0
tp2018
sg1
(g2
g3
Ntp2019
Rp2020
(dp2021
g7
S'10'
p2022
sg9
g30
sg11
S'19'
p2023
sb(I3585
I8234
I0
tp2024
sg1
(g2
g3
Ntp2025
Rp2026
(dp2027
g7
g17
sg9
g18
sg11
g70
sb(I27
I61
I0
tp2028
sg1
(g2
g3
Ntp2029
Rp2030
(dp2031
g7
g58
sg9
g18
sg11
g112
sb(I25
I103
I0
tp2032
sg1
(g2
g3
Ntp2033
Rp2034
(dp2035
g7
g17
sg9
g30
sg11
S'18'
p2036
sb(I1002
I1885
I0
tp2037
sg1
(g2
g3
Ntp2038
Rp2039
(dp2040
g7
S'26'
p2041
sg9
g10
sg11
S'22'
p2042
sb(I0
I1552
I0
tp2043
sg1
(g2
g3
Ntp2044
Rp2045
(dp2046
g7
S'17'
p2047
sg9
g10
sg11
S'23'
p2048
sb(I2
I5459
I0
tp2049
sg1
(g2
g3
Ntp2050
Rp2051
(dp2052
g7
g17
sg9
g25
sg11
g70
sb(I190
I0
I0
tp2053
sg1
(g2
g3
Ntp2054
Rp2055
(dp2056
g7
g112
sg9
g10
sg11
g112
sb(I1
I1
I0
tp2057
sg1
(g2
g3
Ntp2058
Rp2059
(dp2060
g7
S'11'
p2061
sg9
g10
sg11
S'25'
p2062
sb(I0
I103
I0
tp2063
sg1
(g2
g3
Ntp2064
Rp2065
(dp2066
g7
S'22'
p2067
sg9
g10
sg11
S'13'
p2068
sb(I1517
I0
I0
tp2069
sg1
(g2
g3
Ntp2070
Rp2071
(dp2072
g7
S'10'
p2073
sg9
g10
sg11
S'19'
p2074
sb(I125
I121
I0
tp2075
sg1
(g2
g3
Ntp2076
Rp2077
(dp2078
g7
S'18'
p2079
sg9
g10
sg11
S'26'
p2080
sb(I0
I3856
I0
tp2081
sg1
(g2
g3
Ntp2082
Rp2083
(dp2084
g7
S'22'
p2085
sg9
g10
sg11
S'26'
p2086
sb(I1
I1953
I0
tp2087
sg1
(g2
g3
Ntp2088
Rp2089
(dp2090
g7
S'18'
p2091
sg9
g10
sg11
S'21'
p2092
sb(I3795
I0
I0
tp2093
sg1
(g2
g3
Ntp2094
Rp2095
(dp2096
g7
g70
sg9
g30
sg11
S'16'
p2097
sb(I1268
I1474
I0
tp2098
sg1
(g2
g3
Ntp2099
Rp2100
(dp2101
g7
g17
sg9
g18
sg11
S'18'
p2102
sb(I36
I98
I0
tp2103
sg1
(g2
g3
Ntp2104
Rp2105
(dp2106
g7
g17
sg9
g10
sg11
g17
sbg1342
sg1
(g2
g3
Ntp2107
Rp2108
(dp2109
g7
g70
sg9
g25
sg11
S'16'
p2110
sb(I400
I390
I0
tp2111
sg1
(g2
g3
Ntp2112
Rp2113
(dp2114
g7
S'24'
p2115
sg9
g10
sg11
S'20'
p2116
sb(I1911
I0
I0
tp2117
sg1
(g2
g3
Ntp2118
Rp2119
(dp2120
g7
g112
sg9
g10
sg11
S'29'
p2121
sb(I0
I55
I0
tp2122
sg1
(g2
g3
Ntp2123
Rp2124
(dp2125
g7
g64
sg9
g10
sg11
S'29'
p2126
sb(I0
I69
I0
tp2127
sg1
(g2
g3
Ntp2128
Rp2129
(dp2130
g7
S'23'
p2131
sg9
g10
sg11
S'14'
p2132
sb(I1421
I0
I0
tp2133
sg1
(g2
g3
Ntp2134
Rp2135
(dp2136
g7
g70
sg9
g10
sg11
S'22'
p2137
sb(I0
I127
I0
tp2138
sg1
(g2
g3
Ntp2139
Rp2140
(dp2141
g7
g70
sg9
g18
sg11
S'16'
p2142
sb(I36
I84
I0
tp2143
sg1
(g2
g3
Ntp2144
Rp2145
(dp2146
g7
S'20'
p2147
sg9
g10
sg11
S'25'
p2148
sb(I1
I5544
I0
tp2149
sg1
(g2
g3
Ntp2150
Rp2151
(dp2152
g7
g112
sg9
g10
sg11
S'24'
p2153
sb(I0
I102
I0
tp2154
sg1
(g2
g3
Ntp2155
Rp2156
(dp2157
g7
g112
sg9
g25
sg11
g58
sb(I310
I0
I0
tp2158
sg1
(g2
g3
Ntp2159
Rp2160
(dp2161
g7
S'19'
p2162
sg9
g10
sg11
S'15'
p2163
sb(I0
I3037
I0
tp2164
sg1
(g2
g3
Ntp2165
Rp2166
(dp2167
g7
g112
sg9
g30
sg11
g58
sb(I633
I0
I0
tp2168
sg1
(g2
g3
Ntp2169
Rp2170
(dp2171
g7
S'21'
p2172
sg9
g10
sg11
S'20'
p2173
sb(I0
I3908
I0
tp2174
sg1
(g2
g3
Ntp2175
Rp2176
(dp2177
g7
g64
sg9
g10
sg11
S'30'
p2178
sb(I0
I88
I0
tp2179
sg1
(g2
g3
Ntp2180
Rp2181
(dp2182
g7
g112
sg9
g18
sg11
g58
sb(I26
I74
I0
tp2183
sg1
(g2
g3
Ntp2184
Rp2185
(dp2186
g7
g112
sg9
g30
sg11
S'21'
p2187
sb(I1362
I1732
I0
tp2188
sg1
(g2
g3
Ntp2189
Rp2190
(dp2191
g7
g112
sg9
g10
sg11
g58
sb(I2
I6
I0
tp2192
sg1
(g2
g3
Ntp2193
Rp2194
(dp2195
g7
S'21'
p2196
sg9
g10
sg11
S'24'
p2197
sb(I0
I4192
I0
tp2198
sg1
(g2
g3
Ntp2199
Rp2200
(dp2201
g7
g17
sg9
g30
sg11
g17
sb(I9
I0
I0
tp2202
sg1
(g2
g3
Ntp2203
Rp2204
(dp2205
g7
S'22'
p2206
sg9
g10
sg11
g17
sb(I4
I0
I0
tp2207
sg1
(g2
g3
Ntp2208
Rp2209
(dp2210
g7
S'20'
p2211
sg9
g10
sg11
g37
sb(I1
I663
I0
tp2212
sg1
(g2
g3
Ntp2213
Rp2214
(dp2215
g7
g85
sg9
g30
sg11
S'16'
p2216
sb(I1314
I1474
I0
tp2217
sg1
(g2
g3
Ntp2218
Rp2219
(dp2220
g7
g85
sg9
g25
sg11
S'10'
p2221
sb(I444
I0
I0
tp2222
sg1
(g2
g3
Ntp2223
Rp2224
(dp2225
g7
g70
sg9
g18
sg11
g70
sb(I30
I70
I0
tp2226
sg1
(g2
g3
Ntp2227
Rp2228
(dp2229
g7
g85
sg9
g30
sg11
S'10'
p2230
sb(I941
I0
I0
tp2231
sg1
(g2
g3
Ntp2232
Rp2233
(dp2234
g7
S'10'
p2235
sg9
g10
sg11
S'28'
p2236
sb(I0
I241
I0
tp2237
sg1
(g2
g3
Ntp2238
Rp2239
(dp2240
g7
g70
sg9
g10
sg11
g70
sb(I0
I4
I0
tp2241
sg1
(g2
g3
Ntp2242
Rp2243
(dp2244
g7
g85
sg9
g25
sg11
S'16'
p2245
sb(I397
I414
I0
tp2246
sg1
(g2
g3
Ntp2247
Rp2248
(dp2249
g7
S'20'
p2250
sg9
g10
sg11
g64
sb(I0
I1067
I0
tp2251
sg1
(g2
g3
Ntp2252
Rp2253
(dp2254
g7
g112
sg9
g10
sg11
S'27'
p2255
sb(I0
I95
I0
tp2256
sg1
(g2
g3
Ntp2257
Rp2258
(dp2259
g7
g85
sg9
g10
sg11
S'16'
p2260
sb(I25
I38
I0
tp2261
sg1
(g2
g3
Ntp2262
Rp2263
(dp2264
g7
S'10'
p2265
sg9
g10
sg11
g58
sb(I3
I29
I0
tp2266
sg1
(g2
g3
Ntp2267
Rp2268
(dp2269
g7
g70
sg9
g30
sg11
g85
sb(I56
I0
I0
tp2270
sg1
(g2
g3
Ntp2271
Rp2272
(dp2273
g7
g85
sg9
g18
sg11
S'16'
p2274
sb(I28
I74
I0
tp2275
sg1
(g2
g3
Ntp2276
Rp2277
(dp2278
g7
g70
sg9
g30
sg11
g70
sb(I368
I0
I0
tp2279
sg1
(g2
g3
Ntp2280
Rp2281
(dp2282
g7
g70
sg9
g18
sg11
g112
sb(I46
I78
I0
tp2283
sg1
(g2
g3
Ntp2284
Rp2285
(dp2286
g7
g37
sg9
g10
sg11
S'18'
p2287
sb(I39
I20
I0
tp2288
sg1
(g2
g3
Ntp2289
Rp2290
(dp2291
g7
g85
sg9
g18
sg11
g70
sb(I43
I85
I0
tp2292
sg1
(g2
g3
Ntp2293
Rp2294
(dp2295
g7
g112
sg9
g25
sg11
S'21'
p2296
sb(I504
I0
I0
tp2297
sg1
(g2
g3
Ntp2298
Rp2299
(dp2300
g7
g70
sg9
g30
sg11
S'10'
p2301
sb(I845
I0
I0
tp2302
sg1
(g2
g3
Ntp2303
Rp2304
(dp2305
g7
S'11'
p2306
sg9
g25
sg11
S'19'
p2307
sb(I238
I421
I0
tp2308
sg1
(g2
g3
Ntp2309
Rp2310
(dp2311
g7
g85
sg9
g10
sg11
g70
sb(I2
I1
I0
tp2312
sg1
(g2
g3
Ntp2313
Rp2314
(dp2315
g7
S'10'
p2316
sg9
g10
sg11
S'26'
p2317
sb(I0
I353
I0
tp2318
sg1
(g2
g3
Ntp2319
Rp2320
(dp2321
g7
g70
sg9
g10
sg11
g112
sbg1486
sg1
(g2
g3
Ntp2322
Rp2323
(dp2324
g7
S'11'
p2325
sg9
g30
sg11
S'19'
p2326
sb(I901
I2041
I0
tp2327
sg1
(g2
g3
Ntp2328
Rp2329
(dp2330
g7
S'18'
p2331
sg9
g10
sg11
S'11'
p2332
sb(I0
I1219
I0
tp2333
sg1
(g2
g3
Ntp2334
Rp2335
(dp2336
g7
g37
sg9
g30
sg11
S'18'
p2337
sb(I1025
I1867
I0
tp2338
sg1
(g2
g3
Ntp2339
Rp2340
(dp2341
g7
S'11'
p2342
sg9
g10
sg11
S'19'
p2343
sb(I20
I40
I0
tp2344
sg1
(g2
g3
Ntp2345
Rp2346
(dp2347
g7
g17
sg9
g10
sg11
S'27'
p2348
sb(I0
I82
I0
tp2349
sg1
(g2
g3
Ntp2350
Rp2351
(dp2352
g7
g70
sg9
g10
sg11
S'10'
p2353
sb(I6
I8
I0
tp2354
sg1
(g2
g3
Ntp2355
Rp2356
(dp2357
g7
g85
sg9
g25
sg11
g70
sb(I180
I0
I0
tp2358
sg1
(g2
g3
Ntp2359
Rp2360
(dp2361
g7
g112
sg9
g10
sg11
S'19'
p2362
sb(I54
I21
I0
tp2363
sg1
(g2
g3
Ntp2364
Rp2365
(dp2366
g7
g70
sg9
g25
sg11
g112
sb(I56
I0
I0
tp2367
sg1
(g2
g3
Ntp2368
Rp2369
(dp2370
g7
S'25'
p2371
sg9
g10
sg11
S'28'
p2372
sb(I2
I1005
I0
tp2373
sg1
(g2
g3
Ntp2374
Rp2375
(dp2376
g7
g70
sg9
g10
sg11
S'19'
p2377
sb(I36
I15
I0
tp2378
sg1
(g2
g3
Ntp2379
Rp2380
(dp2381
g7
g70
sg9
g30
sg11
g112
sb(I95
I0
I0
tp2382
sg1
(g2
g3
Ntp2383
Rp2384
(dp2385
g7
g37
sg9
g25
sg11
S'18'
p2386
sb(I279
I405
I0
tp2387
sg1
(g2
g3
Ntp2388
Rp2389
(dp2390
g7
S'17'
p2391
sg9
g10
sg11
S'30'
p2392
sb(I2
I2373
I0
tp2393
sg1
(g2
g3
Ntp2394
Rp2395
(dp2396
g7
g70
sg9
g18
sg11
S'10'
p2397
sb(I23
I55
I0
tp2398
sg1
(g2
g3
Ntp2399
Rp2400
(dp2401
g7
S'11'
p2402
sg9
g10
sg11
S'28'
p2403
sb(I0
I94
I0
tp2404
sg1
(g2
g3
Ntp2405
Rp2406
(dp2407
g7
S'10'
p2408
sg9
g25
sg11
S'18'
p2409
sb(I1199
I1749
I0
tp2410
sg1
(g2
g3
Ntp2411
Rp2412
(dp2413
g7
g17
sg9
g25
sg11
g112
sb(I54
I0
I0
tp2414
sg1
(g2
g3
Ntp2415
Rp2416
(dp2417
g7
S'25'
p2418
sg9
g10
sg11
S'17'
p2419
sb(I1140
I0
I0
tp2420
sg1
(g2
g3
Ntp2421
Rp2422
(dp2423
g7
g37
sg9
g18
sg11
S'12'
p2424
sb(I19
I75
I0
tp2425
sg1
(g2
g3
Ntp2426
Rp2427
(dp2428
g7
S'10'
p2429
sg9
g30
sg11
S'18'
p2430
sb(I4119
I7246
I0
tp2431
sg1
(g2
g3
Ntp2432
Rp2433
(dp2434
g7
g17
sg9
g30
sg11
g112
sb(I80
I0
I0
tp2435
sg1
(g2
g3
Ntp2436
Rp2437
(dp2438
g7
g64
sg9
g30
sg11
g37
sb(I555
I0
I0
tp2439
sg1
(g2
g3
Ntp2440
Rp2441
(dp2442
g7
S'19'
p2443
sg9
g10
sg11
S'30'
p2444
sb(I0
I2197
I0
tp2445
sg1
(g2
g3
Ntp2446
Rp2447
(dp2448
g7
S'19'
p2449
sg9
g10
sg11
S'21'
p2450
sb(I3695
I0
I0
tp2451
sg1
(g2
g3
Ntp2452
Rp2453
(dp2454
g7
S'10'
p2455
sg9
g18
sg11
S'18'
p2456
sb(I76
I374
I0
tp2457
sg1
(g2
g3
Ntp2458
Rp2459
(dp2460
g7
S'10'
p2461
sg9
g10
sg11
S'18'
p2462
sb(I78
I171
I0
tp2463
sg1
(g2
g3
Ntp2464
Rp2465
(dp2466
g7
g17
sg9
g10
sg11
S'14'
p2467
sb(I12
I24
I0
tp2468
sg1
(g2
g3
Ntp2469
Rp2470
(dp2471
g7
S'11'
p2472
sg9
g10
sg11
S'23'
p2473
sb(I0
I109
I0
tp2474
sg1
(g2
g3
Ntp2475
Rp2476
(dp2477
g7
g17
sg9
g10
sg11
g112
sbg1486
sg1
(g2
g3
Ntp2478
Rp2479
(dp2480
g7
g12
sg9
g10
sg11
S'23'
p2481
sb(I0
I107
I0
tp2482
sg1
(g2
g3
Ntp2483
Rp2484
(dp2485
g7
S'20'
p2486
sg9
g10
sg11
g58
sb(I0
I912
I0
tp2487
sg1
(g2
g3
Ntp2488
Rp2489
(dp2490
g7
g64
sg9
g10
sg11
S'23'
p2491
sb(I0
I103
I0
tp2492
sg1
(g2
g3
Ntp2493
Rp2494
(dp2495
g7
S'26'
p2496
sg9
g10
sg11
S'31'
p2497
sb(I0
I307
I0
tp2498
sg1
(g2
g3
Ntp2499
Rp2500
(dp2501
g7
S'24'
p2502
sg9
g10
sg11
g58
sb(I282
I0
I0
tp2503
sg1
(g2
g3
Ntp2504
Rp2505
(dp2506
g7
S'11'
p2507
sg9
g10
sg11
S'31'
p2508
sb(I0
I18
I0
tp2509
sg1
(g2
g3
Ntp2510
Rp2511
(dp2512
g7
S'22'
p2513
sg9
g10
sg11
S'12'
p2514
sb(I1400
I0
I0
tp2515
sg1
(g2
g3
Ntp2516
Rp2517
(dp2518
g7
S'10'
p2519
sg9
g10
sg11
S'21'
p2520
sb(I281
I38
I0
tp2521
sg1
(g2
g3
Ntp2522
Rp2523
(dp2524
g7
S'26'
p2525
sg9
g10
sg11
S'27'
p2526
sb(I0
I975
I0
tp2527
sg1
(g2
g3
Ntp2528
Rp2529
(dp2530
g7
S'17'
p2531
sg9
g10
sg11
S'24'
p2532
sb(I2
I5050
I0
tp2533
sg1
(g2
g3
Ntp2534
Rp2535
(dp2536
g7
S'10'
p2537
sg9
g25
sg11
S'21'
p2538
sb(I2052
I0
I0
tp2539
sg1
(g2
g3
Ntp2540
Rp2541
(dp2542
g7
g70
sg9
g10
sg11
S'16'
p2543
sb(I28
I28
I0
tp2544
sg1
(g2
g3
Ntp2545
Rp2546
(dp2547
g7
S'24'
p2548
sg9
g10
sg11
S'13'
p2549
sb(I1196
I0
I0
tp2550
sg1
(g2
g3
Ntp2551
Rp2552
(dp2553
g7
g12
sg9
g18
sg11
g112
sb(I42
I62
I0
tp2554
sg1
(g2
g3
Ntp2555
Rp2556
(dp2557
g7
S'17'
p2558
sg9
g10
sg11
S'19'
p2559
sb(I3621
I0
I0
tp2560
sg1
(g2
g3
Ntp2561
Rp2562
(dp2563
g7
g85
sg9
g10
sg11
g37
sb(I4
I2
I0
tp2564
sg1
(g2
g3
Ntp2565
Rp2566
(dp2567
g7
S'18'
p2568
sg9
g10
sg11
S'29'
p2569
sb(I1
I2424
I0
tp2570
sg1
(g2
g3
Ntp2571
Rp2572
(dp2573
g7
S'10'
p2574
sg9
g30
sg11
S'21'
p2575
sb(I5296
I7266
I0
tp2576
sg1
(g2
g3
Ntp2577
Rp2578
(dp2579
g7
g58
sg9
g10
sg11
S'25'
p2580
sb(I0
I101
I0
tp2581
sg1
(g2
g3
Ntp2582
Rp2583
(dp2584
g7
g12
sg9
g10
sg11
S'25'
p2585
sb(I0
I91
I0
tp2586
sg1
(g2
g3
Ntp2587
Rp2588
(dp2589
g7
g17
sg9
g25
sg11
S'10'
p2590
sb(I416
I0
I0
tp2591
sg1
(g2
g3
Ntp2592
Rp2593
(dp2594
g7
S'20'
p2595
sg9
g10
sg11
S'10'
p2596
sb(I0
I1309
I0
tp2597
sg1
(g2
g3
Ntp2598
Rp2599
(dp2600
g7
S'23'
p2601
sg9
g10
sg11
g17
sb(I3
I0
I0
tp2602
sg1
(g2
g3
Ntp2603
Rp2604
(dp2605
g7
g58
sg9
g30
sg11
g70
sb(I323
I0
I0
tp2606
sg1
(g2
g3
Ntp2607
Rp2608
(dp2609
g7
S'17'
p2610
sg9
g10
sg11
g17
sb(I0
I4
I0
tp2611
sg1
(g2
g3
Ntp2612
Rp2613
(dp2614
g7
S'10'
p2615
sg9
g30
sg11
g70
sb(I1359
I0
I0
tp2616
sg1
(g2
g3
Ntp2617
Rp2618
(dp2619
g7
S'26'
p2620
sg9
g10
sg11
S'14'
p2621
sb(I883
I0
I0
tp2622
sg1
(g2
g3
Ntp2623
Rp2624
(dp2625
g7
g17
sg9
g30
sg11
S'10'
p2626
sb(I988
I0
I0
tp2627
sg1
(g2
g3
Ntp2628
Rp2629
(dp2630
g7
g12
sg9
g10
sg11
g37
sb(I1
I10
I0
tp2631
sg1
(g2
g3
Ntp2632
Rp2633
(dp2634
g7
S'25'
p2635
sg9
g10
sg11
g12
sb(I103
I0
I0
tp2636
sg1
(g2
g3
Ntp2637
Rp2638
(dp2639
g7
g37
sg9
g25
sg11
g17
sb(I2
I0
I0
tp2640
sg1
(g2
g3
Ntp2641
Rp2642
(dp2643
g7
g112
sg9
g30
sg11
S'19'
p2644
sb(I916
I2068
I0
tp2645
sg1
(g2
g3
Ntp2646
Rp2647
(dp2648
g7
g17
sg9
g18
sg11
S'10'
p2649
sb(I26
I84
I0
tp2650
sg1
(g2
g3
Ntp2651
Rp2652
(dp2653
g7
g37
sg9
g30
sg11
g17
sb(I7
I0
I0
tp2654
sg1
(g2
g3
Ntp2655
Rp2656
(dp2657
g7
g112
sg9
g25
sg11
S'19'
p2658
sb(I248
I396
I0
tp2659
sg1
(g2
g3
Ntp2660
Rp2661
(dp2662
g7
g58
sg9
g18
sg11
g70
sb(I27
I83
I0
tp2663
sg1
(g2
g3
Ntp2664
Rp2665
(dp2666
g7
g112
sg9
g10
sg11
S'17'
p2667
sb(I32
I31
I0
tp2668
sg1
(g2
g3
Ntp2669
Rp2670
(dp2671
g7
g12
sg9
g10
sg11
S'28'
p2672
sb(I0
I69
I0
tp2673
sg1
(g2
g3
Ntp2674
Rp2675
(dp2676
g7
S'23'
p2677
sg9
g10
sg11
S'11'
p2678
sb(I590
I0
I0
tp2679
sg1
(g2
g3
Ntp2680
Rp2681
(dp2682
g7
g37
sg9
g25
sg11
g112
sb(I56
I0
I0
tp2683
sg1
(g2
g3
Ntp2684
Rp2685
(dp2686
g7
S'19'
p2687
sg9
g10
sg11
S'16'
p2688
sb(I1
I3210
I0
tp2689
sg1
(g2
g3
Ntp2690
Rp2691
(dp2692
g7
g37
sg9
g25
sg11
S'10'
p2693
sb(I459
I0
I0
tp2694
sg1
(g2
g3
Ntp2695
Rp2696
(dp2697
g7
S'24'
p2698
sg9
g10
sg11
S'10'
p2699
sb(I402
I0
I0
tp2700
sg1
(g2
g3
Ntp2701
Rp2702
(dp2703
g7
g70
sg9
g25
sg11
g70
sb(I198
I0
I0
tp2704
sg1
(g2
g3
Ntp2705
Rp2706
(dp2707
g7
g37
sg9
g30
sg11
S'10'
p2708
sb(I869
I0
I0
tp2709
sg1
(g2
g3
Ntp2710
Rp2711
(dp2712
g7
g58
sg9
g10
sg11
S'21'
p2713
sb(I78
I3
I0
tp2714
sg1
(g2
g3
Ntp2715
Rp2716
(dp2717
g7
g85
sg9
g18
sg11
g112
sb(I44
I74
I0
tp2718
sg1
(g2
g3
Ntp2719
Rp2720
(dp2721
g7
g85
sg9
g18
sg11
S'10'
p2722
sb(I22
I64
I0
tp2723
sg1
(g2
g3
Ntp2724
Rp2725
(dp2726
g7
g37
sg9
g30
sg11
g112
sb(I83
I0
I0
tp2727
sg1
(g2
g3
Ntp2728
Rp2729
(dp2730
g7
g112
sg9
g25
sg11
g70
sb(I197
I0
I0
tp2731
sg1
(g2
g3
Ntp2732
Rp2733
(dp2734
g7
g58
sg9
g30
sg11
S'19'
p2735
sb(I878
I2113
I0
tp2736
sg1
(g2
g3
Ntp2737
Rp2738
(dp2739
g7
g37
sg9
g18
sg11
S'10'
p2740
sb(I26
I98
I0
tp2741
sg1
(g2
g3
Ntp2742
Rp2743
(dp2744
g7
g37
sg9
g18
sg11
g112
sb(I32
I84
I0
tp2745
sg1
(g2
g3
Ntp2746
Rp2747
(dp2748
g7
S'17'
p2749
sg9
g10
sg11
S'25'
p2750
sb(I0
I4514
I0
tp2751
sg1
(g2
g3
Ntp2752
Rp2753
(dp2754
g7
g64
sg9
g10
sg11
S'26'
p2755
sb(I0
I78
I0
tp2756
sg1
(g2
g3
Ntp2757
Rp2758
(dp2759
g7
g37
sg9
g10
sg11
S'10'
p2760
sb(I2
I10
I0
tp2761
sg1
(g2
g3
Ntp2762
Rp2763
(dp2764
g7
g58
sg9
g30
sg11
S'21'
p2765
sb(I1319
I1869
I0
tp2766
sg1
(g2
g3
Ntp2767
Rp2768
(dp2769
g7
S'26'
p2770
sg9
g10
sg11
g17
sb(I3
I0
I0
tp2771
sg1
(g2
g3
Ntp2772
Rp2773
(dp2774
g7
g58
sg9
g30
sg11
g37
sb(I577
I0
I0
tp2775
sg1
(g2
g3
Ntp2776
Rp2777
(dp2778
g7
g58
sg9
g25
sg11
S'19'
p2779
sb(I229
I395
I0
tp2780
sg1
(g2
g3
Ntp2781
Rp2782
(dp2783
g7
g37
sg9
g10
sg11
g112
sb(I0
I2
I0
tp2784
sg1
(g2
g3
Ntp2785
Rp2786
(dp2787
g7
g17
sg9
g10
sg11
S'12'
p2788
sb(I14
I29
I0
tp2789
sg1
(g2
g3
Ntp2790
Rp2791
(dp2792
g7
g58
sg9
g25
sg11
S'16'
p2793
sb(I409
I415
I0
tp2794
sg1
(g2
g3
Ntp2795
Rp2796
(dp2797
g7
g64
sg9
g10
sg11
S'18'
p2798
sb(I18
I41
I0
tp2799
sg1
(g2
g3
Ntp2800
Rp2801
(dp2802
g7
g112
sg9
g10
sg11
S'11'
p2803
sb(I6
I6
I0
tp2804
sg1
(g2
g3
Ntp2805
Rp2806
(dp2807
g7
g112
sg9
g25
sg11
S'18'
p2808
sb(I332
I413
I0
tp2809
sg1
(g2
g3
Ntp2810
Rp2811
(dp2812
g7
g70
sg9
g25
sg11
g17
sbg855
sg1
(g2
g3
Ntp2813
Rp2814
(dp2815
g7
S'19'
p2816
sg9
g10
sg11
S'29'
p2817
sb(I0
I2415
I0
tp2818
sg1
(g2
g3
Ntp2819
Rp2820
(dp2821
g7
S'18'
p2822
sg9
g10
sg11
g17
sb(I0
I6
I0
tp2823
sg1
(g2
g3
Ntp2824
Rp2825
(dp2826
g7
g112
sg9
g30
sg11
S'18'
p2827
sb(I1028
I1775
I0
tp2828
sg1
(g2
g3
Ntp2829
Rp2830
(dp2831
g7
g58
sg9
g30
sg11
S'16'
p2832
sb(I1343
I1431
I0
tp2833
sg1
(g2
g3
Ntp2834
Rp2835
(dp2836
g7
S'21'
p2837
sg9
g10
sg11
S'14'
p2838
sb(I0
I2586
I0
tp2839
sg1
(g2
g3
Ntp2840
Rp2841
(dp2842
g7
g85
sg9
g10
sg11
S'10'
p2843
sb(I6
I3
I0
tp2844
sg1
(g2
g3
Ntp2845
Rp2846
(dp2847
g7
g64
sg9
g30
sg11
S'18'
p2848
sb(I1073
I1816
I0
tp2849
sg1
(g2
g3
Ntp2850
Rp2851
(dp2852
g7
g85
sg9
g30
sg11
g17
sb(I6
I0
I0
tp2853
sg1
(g2
g3
Ntp2854
Rp2855
(dp2856
g7
g58
sg9
g18
sg11
S'16'
p2857
sb(I28
I68
I0
tp2858
sg1
(g2
g3
Ntp2859
Rp2860
(dp2861
g7
g58
sg9
g25
sg11
S'21'
p2862
sb(I526
I0
I0
tp2863
sg1
(g2
g3
Ntp2864
Rp2865
(dp2866
g7
g64
sg9
g10
sg11
g70
sb(I0
I2
I0
tp2867
sg1
(g2
g3
Ntp2868
Rp2869
(dp2870
g7
g85
sg9
g30
sg11
g37
sb(I517
I0
I0
tp2871
sg1
(g2
g3
Ntp2872
Rp2873
(dp2874
g7
g12
sg9
g10
sg11
S'24'
p2875
sb(I0
I109
I0
tp2876
sg1
(g2
g3
Ntp2877
Rp2878
(dp2879
g7
g58
sg9
g10
sg11
S'16'
p2880
sb(I14
I41
I0
tp2881
sg1
(g2
g3
Ntp2882
Rp2883
(dp2884
g7
g64
sg9
g25
sg11
S'18'
p2885
sb(I286
I416
I0
tp2886
sg1
(g2
g3
Ntp2887
Rp2888
(dp2889
g7
S'18'
p2890
sg9
g10
sg11
S'18'
p2891
sb(I2
I3445
I0
tp2892
sg1
(g2
g3
Ntp2893
Rp2894
(dp2895
g7
S'11'
p2896
sg9
g10
sg11
S'29'
p2897
sb(I0
I71
I0
tp2898
sg1
(g2
g3
Ntp2899
Rp2900
(dp2901
g7
S'19'
p2902
sg9
g10
sg11
S'23'
p2903
sb(I1
I5123
I0
tp2904
sg1
(g2
g3
Ntp2905
Rp2906
(dp2907
g7
S'11'
p2908
sg9
g25
sg11
S'21'
p2909
sb(I481
I0
I0
tp2910
sg1
(g2
g3
Ntp2911
Rp2912
(dp2913
g7
S'21'
p2914
sg9
g10
sg11
S'13'
p2915
sb(I0
I2509
I0
tp2916
sg1
(g2
g3
Ntp2917
Rp2918
(dp2919
g7
S'11'
p2920
sg9
g30
sg11
S'21'
p2921
sb(I1262
I1715
I0
tp2922
sg1
(g2
g3
Ntp2923
Rp2924
(dp2925
g7
S'25'
p2926
sg9
g10
sg11
S'14'
p2927
sb(I1052
I0
I0
tp2928
sg1
(g2
g3
Ntp2929
Rp2930
(dp2931
g7
S'18'
p2932
sg9
g10
sg11
S'22'
p2933
sb(I2
I5712
I0
tp2934
sg1
(g2
g3
Ntp2935
Rp2936
(dp2937
g7
S'20'
p2938
sg9
g10
sg11
S'28'
p2939
sb(I0
I3803
I0
tp2940
sg1
(g2
g3
Ntp2941
Rp2942
(dp2943
g7
g70
sg9
g30
sg11
g58
sb(I602
I0
I0
tp2944
sg1
(g2
g3
Ntp2945
Rp2946
(dp2947
g7
g70
sg9
g10
sg11
S'29'
p2948
sb(I0
I68
I0
tp2949
sg1
(g2
g3
Ntp2950
Rp2951
(dp2952
g7
g12
sg9
g25
sg11
g12
sb(I128
I0
I0
tp2953
sg1
(g2
g3
Ntp2954
Rp2955
(dp2956
g7
g85
sg9
g10
sg11
S'31'
p2957
sb(I0
I17
I0
tp2958
sg1
(g2
g3
Ntp2959
Rp2960
(dp2961
g7
g70
sg9
g18
sg11
g58
sb(I32
I80
I0
tp2962
sg1
(g2
g3
Ntp2963
Rp2964
(dp2965
g7
g64
sg9
g10
sg11
S'15'
p2966
sb(I14
I36
I0
tp2967
sg1
(g2
g3
Ntp2968
Rp2969
(dp2970
g7
S'25'
p2971
sg9
g10
sg11
g58
sb(I261
I0
I0
tp2972
sg1
(g2
g3
Ntp2973
Rp2974
(dp2975
g7
g64
sg9
g18
sg11
S'16'
p2976
sb(I34
I96
I0
tp2977
sg1
(g2
g3
Ntp2978
Rp2979
(dp2980
g7
S'11'
p2981
sg9
g10
sg11
S'21'
p2982
sb(I55
I26
I0
tp2983
sg1
(g2
g3
Ntp2984
Rp2985
(dp2986
g7
g12
sg9
g30
sg11
g12
sb(I274
I0
I0
tp2987
sg1
(g2
g3
Ntp2988
Rp2989
(dp2990
g7
g70
sg9
g10
sg11
g58
sb(I2
I3
I0
tp2991
sg1
(g2
g3
Ntp2992
Rp2993
(dp2994
g7
S'19'
p2995
sg9
g10
sg11
S'22'
p2996
sb(I0
I5551
I0
tp2997
sg1
(g2
g3
Ntp2998
Rp2999
(dp3000
g7
S'17'
p3001
sg9
g10
sg11
g64
sb(I0
I893
I0
tp3002
sg1
(g2
g3
Ntp3003
Rp3004
(dp3005
g7
g112
sg9
g25
sg11
S'16'
p3006
sb(I442
I391
I0
tp3007
sg1
(g2
g3
Ntp3008
Rp3009
(dp3010
g7
S'22'
p3011
sg9
g10
sg11
S'31'
p3012
sb(I0
I538
I0
tp3013
sg1
(g2
g3
Ntp3014
Rp3015
(dp3016
g7
S'26'
p3017
sg9
g10
sg11
g37
sb(I162
I0
I0
tp3018
sg1
(g2
g3
Ntp3019
Rp3020
(dp3021
g7
g112
sg9
g30
sg11
S'16'
p3022
sb(I1342
I1431
I0
tp3023
sg1
(g2
g3
Ntp3024
Rp3025
(dp3026
g7
g112
sg9
g18
sg11
S'16'
p3027
sb(I42
I106
I0
tp3028
sg1
(g2
g3
Ntp3029
Rp3030
(dp3031
g7
S'17'
p3032
sg9
g10
sg11
S'15'
p3033
sb(I1
I3318
I0
tp3034
sg1
(g2
g3
Ntp3035
Rp3036
(dp3037
g7
g112
sg9
g10
sg11
S'20'
p3038
sb(I80
I28
I0
tp3039
sg1
(g2
g3
Ntp3040
Rp3041
(dp3042
g7
S'24'
p3043
sg9
g10
sg11
S'14'
p3044
sb(I1301
I0
I0
tp3045
sg1
(g2
g3
Ntp3046
Rp3047
(dp3048
g7
g112
sg9
g10
sg11
S'16'
p3049
sb(I20
I32
I0
tp3050
sg1
(g2
g3
Ntp3051
Rp3052
(dp3053
g7
S'17'
p3054
sg9
g10
sg11
S'28'
p3055
sb(I1
I3010
I0
tp3056
sg1
(g2
g3
Ntp3057
Rp3058
(dp3059
g7
g12
sg9
g10
sg11
S'30'
p3060
sb(I0
I103
I0
tp3061
sg1
(g2
g3
Ntp3062
Rp3063
(dp3064
g7
g64
sg9
g18
sg11
S'10'
p3065
sb(I26
I84
I0
tp3066
sg1
(g2
g3
Ntp3067
Rp3068
(dp3069
g7
S'22'
p3070
sg9
g10
sg11
g37
sb(I261
I0
I0
tp3071
sg1
(g2
g3
Ntp3072
Rp3073
(dp3074
g7
S'10'
p3075
sg9
g10
sg11
S'22'
p3076
sb(I0
I494
I0
tp3077
sg1
(g2
g3
Ntp3078
Rp3079
(dp3080
g7
g64
sg9
g10
sg11
S'11'
p3081
sb(I5
I17
I0
tp3082
sg1
(g2
g3
Ntp3083
Rp3084
(dp3085
g7
g12
sg9
g10
sg11
S'18'
p3086
sb(I32
I22
I0
tp3087
sg1
(g2
g3
Ntp3088
Rp3089
(dp3090
g7
g58
sg9
g10
sg11
S'22'
p3091
sb(I0
I118
I0
tp3092
sg1
(g2
g3
Ntp3093
Rp3094
(dp3095
g7
g85
sg9
g10
sg11
S'29'
p3096
sb(I0
I58
I0
tp3097
sg1
(g2
g3
Ntp3098
Rp3099
(dp3100
g7
g12
sg9
g18
sg11
S'18'
p3101
sb(I31
I79
I0
tp3102
sg1
(g2
g3
Ntp3103
Rp3104
(dp3105
g7
S'21'
p3106
sg9
g10
sg11
g58
sb(I0
I586
I0
tp3107
sg1
(g2
g3
Ntp3108
Rp3109
(dp3110
g7
g112
sg9
g25
sg11
g17
sbg855
sg1
(g2
g3
Ntp3111
Rp3112
(dp3113
g7
g64
sg9
g25
sg11
S'10'
p3114
sb(I468
I0
I0
tp3115
sg1
(g2
g3
Ntp3116
Rp3117
(dp3118
g7
g70
sg9
g25
sg11
S'10'
p3119
sb(I448
I0
I0
tp3120
sg1
(g2
g3
Ntp3121
Rp3122
(dp3123
g7
g64
sg9
g30
sg11
S'10'
p3124
sb(I929
I0
I0
tp3125
sg1
(g2
g3
Ntp3126
Rp3127
(dp3128
g7
g17
sg9
g10
sg11
S'23'
p3129
sb(I0
I103
I0
tp3130
sg1
(g2
g3
Ntp3131
Rp3132
(dp3133
g7
g112
sg9
g10
sg11
S'22'
p3134
sb(I0
I118
I0
tp3135
sg1
(g2
g3
Ntp3136
Rp3137
(dp3138
g7
S'10'
p3139
sg9
g25
sg11
g70
sb(I743
I0
I0
tp3140
sg1
(g2
g3
Ntp3141
Rp3142
(dp3143
g7
g37
sg9
g30
sg11
g58
sb(I608
I0
I0
tp3144
sg1
(g2
g3
Ntp3145
Rp3146
(dp3147
g7
S'22'
p3148
sg9
g10
sg11
g85
sb(I52
I0
I0
tp3149
sg1
(g2
g3
Ntp3150
Rp3151
(dp3152
g7
S'17'
p3153
sg9
g10
sg11
g85
sb(I0
I102
I0
tp3154
sg1
(g2
g3
Ntp3155
Rp3156
(dp3157
g7
g85
sg9
g25
sg11
g37
sb(I263
I0
I0
tp3158
sg1
(g2
g3
Ntp3159
Rp3160
(dp3161
g7
S'25'
p3162
sg9
g10
sg11
S'19'
p3163
sb(I1238
I0
I0
tp3164
sg1
(g2
g3
Ntp3165
Rp3166
(dp3167
g7
S'19'
p3168
sg9
g10
sg11
S'18'
p3169
sb(I0
I3396
I0
tp3170
sg1
(g2
g3
Ntp3171
Rp3172
(dp3173
g7
g37
sg9
g25
sg11
g58
sb(I313
I0
I0
tp3174
sg1
(g2
g3
Ntp3175
Rp3176
(dp3177
g7
S'19'
p3178
sg9
g10
sg11
g64
sb(I0
I793
I0
tp3179
sg1
(g2
g3
Ntp3180
Rp3181
(dp3182
g7
g37
sg9
g10
sg11
g58
sb(I2
I5
I0
tp3183
sg1
(g2
g3
Ntp3184
Rp3185
(dp3186
g7
g37
sg9
g10
sg11
S'24'
p3187
sb(I0
I100
I0
tp3188
sg1
(g2
g3
Ntp3189
Rp3190
(dp3191
g7
S'10'
p3192
sg9
g18
sg11
g70
sb(I88
I368
I0
tp3193
sg1
(g2
g3
Ntp3194
Rp3195
(dp3196
g7
g37
sg9
g10
sg11
S'30'
p3197
sb(I0
I81
I0
tp3198
sg1
(g2
g3
Ntp3199
Rp3200
(dp3201
g7
g37
sg9
g18
sg11
g58
sb(I32
I80
I0
tp3202
sg1
(g2
g3
Ntp3203
Rp3204
(dp3205
g7
S'10'
p3206
sg9
g10
sg11
g70
sb(I4
I19
I0
tp3207
sg1
(g2
g3
Ntp3208
Rp3209
(dp3210
g7
S'21'
p3211
sg9
g10
sg11
S'11'
p3212
sb(I0
I1083
I0
tp3213
sg1
(g2
g3
Ntp3214
Rp3215
(dp3216
g7
g85
sg9
g10
sg11
S'27'
p3217
sb(I0
I76
I0
tp3218
sg1
(g2
g3
Ntp3219
Rp3220
(dp3221
g7
S'20'
p3222
sg9
g10
sg11
S'27'
p3223
sb(I2
I4324
I0
tp3224
sg1
(g2
g3
Ntp3225
Rp3226
(dp3227
g7
g70
sg9
g10
sg11
S'21'
p3228
sb(I56
I4
I0
tp3229
sg1
(g2
g3
Ntp3230
Rp3231
(dp3232
g7
S'25'
p3233
sg9
g10
sg11
g85
sb(I42
I0
I0
tp3234
sg1
(g2
g3
Ntp3235
Rp3236
(dp3237
g7
S'18'
p3238
sg9
g10
sg11
S'24'
p3239
sb(I0
I4793
I0
tp3240
sg1
(g2
g3
Ntp3241
Rp3242
(dp3243
g7
g112
sg9
g30
sg11
g17
sb(I5
I0
I0
tp3244
sg1
(g2
g3
Ntp3245
Rp3246
(dp3247
g7
g70
sg9
g25
sg11
S'21'
p3248
sb(I515
I0
I0
tp3249
sg1
(g2
g3
Ntp3250
Rp3251
(dp3252
g7
g70
sg9
g30
sg11
S'21'
p3253
sb(I1365
I1824
I0
tp3254
sg1
(g2
g3
Ntp3255
Rp3256
(dp3257
g7
g12
sg9
g10
sg11
S'29'
p3258
sb(I0
I70
I0
tp3259
sg1
(g2
g3
Ntp3260
Rp3261
(dp3262
g7
g70
sg9
g30
sg11
g64
sb(I870
I0
I0
tp3263
sg1
(g2
g3
Ntp3264
Rp3265
(dp3266
g7
S'18'
p3267
sg9
g10
sg11
S'23'
p3268
sb(I1
I5210
I0
tp3269
sg1
(g2
g3
Ntp3270
Rp3271
(dp3272
g7
g58
sg9
g10
sg11
S'19'
p3273
sb(I40
I12
I0
tp3274
sg1
(g2
g3
Ntp3275
Rp3276
(dp3277
g7
g12
sg9
g25
sg11
S'16'
p3278
sb(I425
I414
I0
tp3279
sg1
(g2
g3
Ntp3280
Rp3281
(dp3282
g7
g85
sg9
g10
sg11
g58
sb(I4
I7
I0
tp3283
sg1
(g2
g3
Ntp3284
Rp3285
(dp3286
g7
S'25'
p3287
sg9
g10
sg11
S'11'
p3288
sb(I420
I0
I0
tp3289
sg1
(g2
g3
Ntp3290
Rp3291
(dp3292
g7
S'11'
p3293
sg9
g10
sg11
S'18'
p3294
sb(I16
I33
I0
tp3295
sg1
(g2
g3
Ntp3296
Rp3297
(dp3298
g7
g64
sg9
g10
sg11
S'13'
p3299
sb(I13
I32
I0
tp3300
sg1
(g2
g3
Ntp3301
Rp3302
(dp3303
g7
g85
sg9
g18
sg11
g58
sb(I27
I97
I0
tp3304
sg1
(g2
g3
Ntp3305
Rp3306
(dp3307
g7
S'21'
p3308
sg9
g10
sg11
g17
sb(I0
I5
I0
tp3309
sg1
(g2
g3
Ntp3310
Rp3311
(dp3312
g7
g12
sg9
g30
sg11
S'16'
p3313
sb(I1271
I1456
I0
tp3314
sg1
(g2
g3
Ntp3315
Rp3316
(dp3317
g7
g12
sg9
g10
sg11
g17
sbg1342
sg1
(g2
g3
Ntp3318
Rp3319
(dp3320
g7
S'11'
p3321
sg9
g18
sg11
S'18'
p3322
sb(I17
I109
I0
tp3323
sg1
(g2
g3
Ntp3324
Rp3325
(dp3326
g7
g58
sg9
g25
sg11
g17
sb(I3
I0
I0
tp3327
sg1
(g2
g3
Ntp3328
Rp3329
(dp3330
g7
g85
sg9
g30
sg11
g58
sb(I595
I0
I0
tp3331
sg1
(g2
g3
Ntp3332
Rp3333
(dp3334
g7
S'11'
p3335
sg9
g30
sg11
S'18'
p3336
sb(I978
I1870
I0
tp3337
sg1
(g2
g3
Ntp3338
Rp3339
(dp3340
g7
g17
sg9
g30
sg11
g12
sb(I267
I0
I0
tp3341
sg1
(g2
g3
Ntp3342
Rp3343
(dp3344
g7
g85
sg9
g30
sg11
g70
sb(I349
I0
I0
tp3345
sg1
(g2
g3
Ntp3346
Rp3347
(dp3348
g7
S'11'
p3349
sg9
g25
sg11
S'18'
p3350
sb(I297
I406
I0
tp3351
sg1
(g2
g3
Ntp3352
Rp3353
(dp3354
g7
g58
sg9
g10
sg11
g17
sb(I0
I3
I0
tp3355
sg1
(g2
g3
Ntp3356
Rp3357
(dp3358
g7
g12
sg9
g10
sg11
S'16'
p3359
sb(I16
I32
I0
tp3360
sg1
(g2
g3
Ntp3361
Rp3362
(dp3363
g7
S'26'
p3364
sg9
g10
sg11
g12
sb(I72
I0
I0
tp3365
sg1
(g2
g3
Ntp3366
Rp3367
(dp3368
g7
g85
sg9
g25
sg11
g58
sb(I311
I0
I0
tp3369
sg1
(g2
g3
Ntp3370
Rp3371
(dp3372
g7
S'21'
p3373
sg9
g10
sg11
g85
sb(I0
I89
I0
tp3374
sg1
(g2
g3
Ntp3375
Rp3376
(dp3377
g7
g64
sg9
g10
sg11
S'16'
p3378
sb(I9
I41
I0
tp3379
sg1
(g2
g3
Ntp3380
Rp3381
(dp3382
g7
g12
sg9
g25
sg11
S'10'
p3383
sb(I421
I0
I0
tp3384
sg1
(g2
g3
Ntp3385
Rp3386
(dp3387
g7
g58
sg9
g25
sg11
S'10'
p3388
sb(I399
I0
I0
tp3389
sg1
(g2
g3
Ntp3390
Rp3391
(dp3392
g7
S'21'
p3393
sg9
g10
sg11
S'19'
p3394
sb(I0
I3018
I0
tp3395
sg1
(g2
g3
Ntp3396
Rp3397
(dp3398
g7
S'23'
p3399
sg9
g10
sg11
g37
sb(I250
I0
I0
tp3400
sg1
(g2
g3
Ntp3401
Rp3402
(dp3403
g7
g64
sg9
g30
sg11
S'15'
p3404
sb(I1523
I1307
I0
tp3405
sg1
(g2
g3
Ntp3406
Rp3407
(dp3408
g7
g112
sg9
g10
sg11
S'26'
p3409
sb(I0
I99
I0
tp3410
sg1
(g2
g3
Ntp3411
Rp3412
(dp3413
g7
g12
sg9
g30
sg11
S'10'
p3414
sb(I904
I0
I0
tp3415
sg1
(g2
g3
Ntp3416
Rp3417
(dp3418
g7
g58
sg9
g30
sg11
S'10'
p3419
sb(I981
I0
I0
tp3420
sg1
(g2
g3
Ntp3421
Rp3422
(dp3423
g7
g64
sg9
g30
sg11
S'16'
p3424
sb(I1337
I1432
I0
tp3425
sg1
(g2
g3
Ntp3426
Rp3427
(dp3428
g7
g12
sg9
g25
sg11
g17
sb(I7
I0
I0
tp3429
sg1
(g2
g3
Ntp3430
Rp3431
(dp3432
g7
S'18'
p3433
sg9
g10
sg11
g70
sb(I0
I393
I0
tp3434
sg1
(g2
g3
Ntp3435
Rp3436
(dp3437
g7
g12
sg9
g18
sg11
S'10'
p3438
sb(I22
I66
I0
tp3439
sg1
(g2
g3
Ntp3440
Rp3441
(dp3442
g7
S'10'
p3443
sg9
g10
sg11
S'13'
p3444
sb(I43
I121
I0
tp3445
sg1
(g2
g3
Ntp3446
Rp3447
(dp3448
g7
g85
sg9
g30
sg11
g64
sb(I820
I0
I0
tp3449
sg1
(g2
g3
Ntp3450
Rp3451
(dp3452
g7
S'22'
p3453
sg9
g10
sg11
g12
sb(I145
I0
I0
tp3454
sg1
(g2
g3
Ntp3455
Rp3456
(dp3457
g7
g64
sg9
g25
sg11
S'16'
p3458
sb(I448
I382
I0
tp3459
sg1
(g2
g3
Ntp3460
Rp3461
(dp3462
g7
S'20'
p3463
sg9
g10
sg11
S'14'
p3464
sb(I0
I3853
I0
tp3465
sg1
(g2
g3
Ntp3466
Rp3467
(dp3468
g7
g58
sg9
g10
sg11
S'10'
p3469
sb(I8
I7
I0
tp3470
sg1
(g2
g3
Ntp3471
Rp3472
(dp3473
g7
S'22'
p3474
sg9
g10
sg11
S'10'
p3475
sb(I522
I0
I0
tp3476
sg1
(g2
g3
Ntp3477
Rp3478
(dp3479
g7
S'17'
p3480
sg9
g10
sg11
S'29'
p3481
sb(I0
I2572
I0
tp3482
sg1
(g2
g3
Ntp3483
Rp3484
(dp3485
g7
g112
sg9
g30
sg11
g70
sb(I355
I0
I0
tp3486
sg1
(g2
g3
Ntp3487
Rp3488
(dp3489
g7
g58
sg9
g18
sg11
S'10'
p3490
sb(I22
I70
I0
tp3491
sg1
(g2
g3
Ntp3492
Rp3493
(dp3494
g7
g12
sg9
g18
sg11
S'16'
p3495
sb(I35
I87
I0
tp3496
sg1
(g2
g3
Ntp3497
Rp3498
(dp3499
g7
g58
sg9
g10
sg11
g12
sbg1486
sg1
(g2
g3
Ntp3500
Rp3501
(dp3502
g7
S'10'
p3503
sg9
g30
sg11
S'15'
p3504
sb(I6058
I5100
I0
tp3505
sg1
(g2
g3
Ntp3506
Rp3507
(dp3508
g7
S'23'
p3509
sg9
g10
sg11
g58
sb(I321
I0
I0
tp3510
sg1
(g2
g3
Ntp3511
Rp3512
(dp3513
g7
S'18'
p3514
sg9
g10
sg11
g64
sb(I0
I828
I0
tp3515
sg1
(g2
g3
Ntp3516
Rp3517
(dp3518
g7
S'10'
p3519
sg9
g10
sg11
S'24'
p3520
sb(I0
I416
I0
tp3521
sg1
(g2
g3
Ntp3522
Rp3523
(dp3524
g7
g85
sg9
g10
sg11
S'25'
p3525
sb(I0
I111
I0
tp3526
sg1
(g2
g3
Ntp3527
Rp3528
(dp3529
g7
S'20'
p3530
sg9
g10
sg11
S'11'
p3531
sb(I0
I1589
I0
tp3532
sg1
(g2
g3
Ntp3533
Rp3534
(dp3535
g7
S'17'
p3536
sg9
g10
sg11
S'21'
p3537
sb(I4101
I0
I0
tp3538
sg1
(g2
g3
Ntp3539
Rp3540
(dp3541
g7
S'10'
p3542
sg9
g25
sg11
S'15'
p3543
sb(I1962
I1589
I0
tp3544
sg1
(g2
g3
Ntp3545
Rp3546
(dp3547
g7
g64
sg9
g10
sg11
g58
sb(I0
I5
I0
tp3548
sg1
(g2
g3
Ntp3549
Rp3550
(dp3551
g7
g70
sg9
g10
sg11
g64
sb(I1
I1
I0
tp3552
sg1
(g2
g3
Ntp3553
Rp3554
(dp3555
g7
g70
sg9
g10
sg11
g12
sb(I0
I3
I0
tp3556
sg1
(g2
g3
Ntp3557
Rp3558
(dp3559
g7
S'22'
p3560
sg9
g10
sg11
S'28'
p3561
sb(I0
I1506
I0
tp3562
sg1
(g2
g3
Ntp3563
Rp3564
(dp3565
g7
g58
sg9
g10
sg11
S'17'
p3566
sb(I17
I44
I0
tp3567
sg1
(g2
g3
Ntp3568
Rp3569
(dp3570
g7
S'19'
p3571
sg9
g10
sg11
S'24'
p3572
sb(I0
I4611
I0
tp3573
sg1
(g2
g3
Ntp3574
Rp3575
(dp3576
g7
g64
sg9
g18
sg11
g58
sb(I21
I83
I0
tp3577
sg1
(g2
g3
Ntp3578
Rp3579
(dp3580
g7
S'21'
p3581
sg9
g10
sg11
S'31'
p3582
sb(I0
I869
I0
tp3583
sg1
(g2
g3
Ntp3584
Rp3585
(dp3586
g7
g58
sg9
g25
sg11
g70
sb(I171
I0
I0
tp3587
sg1
(g2
g3
Ntp3588
Rp3589
(dp3590
g7
g64
sg9
g30
sg11
g58
sb(I617
I0
I0
tp3591
sg1
(g2
g3
Ntp3592
Rp3593
(dp3594
g7
S'11'
p3595
sg9
g10
sg11
g58
sb(I1
I11
I0
tp3596
sg1
(g2
g3
Ntp3597
Rp3598
(dp3599
g7
g58
sg9
g25
sg11
S'17'
p3600
sb(I338
I446
I0
tp3601
sg1
(g2
g3
Ntp3602
Rp3603
(dp3604
g7
S'21'
p3605
sg9
g10
sg11
g112
sb(I0
I113
I0
tp3606
sg1
(g2
g3
Ntp3607
Rp3608
(dp3609
g7
g70
sg9
g30
sg11
g12
sb(I280
I0
I0
tp3610
sg1
(g2
g3
Ntp3611
Rp3612
(dp3613
g7
g58
sg9
g30
sg11
S'17'
p3614
sb(I1223
I1625
I0
tp3615
sg1
(g2
g3
Ntp3616
Rp3617
(dp3618
g7
g70
sg9
g25
sg11
g12
sb(I131
I0
I0
tp3619
sg1
(g2
g3
Ntp3620
Rp3621
(dp3622
g7
g12
sg9
g30
sg11
g17
sb(I5
I0
I0
tp3623
sg1
(g2
g3
Ntp3624
Rp3625
(dp3626
g7
g64
sg9
g25
sg11
g58
sb(I300
I0
I0
tp3627
sg1
(g2
g3
Ntp3628
Rp3629
(dp3630
g7
S'20'
p3631
sg9
g10
sg11
S'31'
p3632
sb(I0
I1352
I0
tp3633
sg1
(g2
g3
Ntp3634
Rp3635
(dp3636
g7
S'21'
p3637
sg9
g10
sg11
S'17'
p3638
sb(I0
I2931
I0
tp3639
sg1
(g2
g3
Ntp3640
Rp3641
(dp3642
g7
g17
sg9
g25
sg11
S'13'
p3643
sb(I715
I306
I0
tp3644
sg1
(g2
g3
Ntp3645
Rp3646
(dp3647
g7
g112
sg9
g30
sg11
S'17'
p3648
sb(I1261
I1768
I0
tp3649
sg1
(g2
g3
Ntp3650
Rp3651
(dp3652
g7
g70
sg9
g10
sg11
S'28'
p3653
sb(I0
I75
I0
tp3654
sg1
(g2
g3
Ntp3655
Rp3656
(dp3657
g7
g17
sg9
g30
sg11
g58
sb(I626
I0
I0
tp3658
sg1
(g2
g3
Ntp3659
Rp3660
(dp3661
g7
g12
sg9
g10
sg11
g112
sb(I2
I2
I0
tp3662
sg1
(g2
g3
Ntp3663
Rp3664
(dp3665
g7
g112
sg9
g25
sg11
S'17'
p3666
sb(I346
I411
I0
tp3667
sg1
(g2
g3
Ntp3668
Rp3669
(dp3670
g7
g17
sg9
g25
sg11
g58
sb(I355
I0
I0
tp3671
sg1
(g2
g3
Ntp3672
Rp3673
(dp3674
g7
S'24'
p3675
sg9
g10
sg11
S'27'
p3676
sb(I0
I1370
I0
tp3677
sg1
(g2
g3
Ntp3678
Rp3679
(dp3680
g7
g17
sg9
g30
sg11
S'13'
p3681
sb(I1768
I940
I0
tp3682
sg1
(g2
g3
Ntp3683
Rp3684
(dp3685
g7
g37
sg9
g10
sg11
S'14'
p3686
sb(I12
I33
I0
tp3687
sg1
(g2
g3
Ntp3688
Rp3689
(dp3690
g7
S'11'
p3691
sg9
g10
sg11
S'22'
p3692
sb(I0
I130
I0
tp3693
sg1
(g2
g3
Ntp3694
Rp3695
(dp3696
g7
g85
sg9
g30
sg11
S'21'
p3697
sb(I1340
I1805
I0
tp3698
sg1
(g2
g3
Ntp3699
Rp3700
(dp3701
g7
S'19'
p3702
sg9
g10
sg11
S'12'
p3703
sb(I1
I2458
I0
tp3704
sg1
(g2
g3
Ntp3705
Rp3706
(dp3707
g7
S'11'
p3708
sg9
g30
sg11
g64
sb(I876
I0
I0
tp3709
sg1
(g2
g3
Ntp3710
Rp3711
(dp3712
g7
g17
sg9
g10
sg11
S'30'
p3713
sb(I0
I92
I0
tp3714
sg1
(g2
g3
Ntp3715
Rp3716
(dp3717
g7
g17
sg9
g18
sg11
g58
sb(I30
I86
I0
tp3718
sg1
(g2
g3
Ntp3719
Rp3720
(dp3721
g7
S'24'
p3722
sg9
g10
sg11
S'11'
p3723
sb(I497
I0
I0
tp3724
sg1
(g2
g3
Ntp3725
Rp3726
(dp3727
g7
S'10'
p3728
sg9
g18
sg11
S'12'
p3729
sb(I77
I409
I0
tp3730
sg1
(g2
g3
Ntp3731
Rp3732
(dp3733
g7
S'11'
p3734
sg9
g10
sg11
g70
sb(I1
I4
I0
tp3735
sg1
(g2
g3
Ntp3736
Rp3737
(dp3738
g7
S'20'
p3739
sg9
g10
sg11
S'19'
p3740
sb(I0
I4551
I0
tp3741
sg1
(g2
g3
Ntp3742
Rp3743
(dp3744
g7
S'23'
p3745
sg9
g10
sg11
S'13'
p3746
sb(I1356
I0
I0
tp3747
sg1
(g2
g3
Ntp3748
Rp3749
(dp3750
g7
g64
sg9
g30
sg11
S'14'
p3751
sb(I1637
I1096
I0
tp3752
sg1
(g2
g3
Ntp3753
Rp3754
(dp3755
g7
g37
sg9
g25
sg11
S'13'
p3756
sb(I665
I321
I0
tp3757
sg1
(g2
g3
Ntp3758
Rp3759
(dp3760
g7
S'10'
p3761
sg9
g10
sg11
S'12'
p3762
sb(I50
I128
I0
tp3763
sg1
(g2
g3
Ntp3764
Rp3765
(dp3766
g7
g37
sg9
g30
sg11
S'13'
p3767
sb(I1775
I952
I0
tp3768
sg1
(g2
g3
Ntp3769
Rp3770
(dp3771
g7
g70
sg9
g10
sg11
S'15'
p3772
sb(I26
I28
I0
tp3773
sg1
(g2
g3
Ntp3774
Rp3775
(dp3776
g7
S'11'
p3777
sg9
g30
sg11
g70
sb(I318
I0
I0
tp3778
sg1
(g2
g3
Ntp3779
Rp3780
(dp3781
g7
g85
sg9
g30
sg11
S'18'
p3782
sb(I1012
I1788
I0
tp3783
sg1
(g2
g3
Ntp3784
Rp3785
(dp3786
g7
S'10'
p3787
sg9
g25
sg11
g17
sb(I11
I0
I0
tp3788
sg1
(g2
g3
Ntp3789
Rp3790
(dp3791
g7
S'25'
p3792
sg9
g10
sg11
g37
sb(I191
I0
I0
tp3793
sg1
(g2
g3
Ntp3794
Rp3795
(dp3796
g7
g70
sg9
g10
sg11
S'14'
p3797
sb(I22
I19
I0
tp3798
sg1
(g2
g3
Ntp3799
Rp3800
(dp3801
g7
g12
sg9
g10
sg11
S'15'
p3802
sb(I25
I28
I0
tp3803
sg1
(g2
g3
Ntp3804
Rp3805
(dp3806
g7
S'10'
p3807
sg9
g25
sg11
S'12'
p3808
sb(I2601
I1148
I0
tp3809
sg1
(g2
g3
Ntp3810
Rp3811
(dp3812
g7
S'19'
p3813
sg9
g10
sg11
g70
sb(I1
I352
I0
tp3814
sg1
(g2
g3
Ntp3815
Rp3816
(dp3817
g7
S'23'
p3818
sg9
g10
sg11
S'10'
p3819
sb(I481
I0
I0
tp3820
sg1
(g2
g3
Ntp3821
Rp3822
(dp3823
g7
S'10'
p3824
sg9
g30
sg11
S'12'
p3825
sb(I6826
I2760
I0
tp3826
sg1
(g2
g3
Ntp3827
Rp3828
(dp3829
g7
S'11'
p3830
sg9
g25
sg11
g70
sb(I184
I0
I0
tp3831
sg1
(g2
g3
Ntp3832
Rp3833
(dp3834
g7
S'19'
p3835
sg9
g10
sg11
S'11'
p3836
sb(I0
I1177
I0
tp3837
sg1
(g2
g3
Ntp3838
Rp3839
(dp3840
g7
S'10'
p3841
sg9
g30
sg11
g17
sb(I16
I0
I0
tp3842
sg1
(g2
g3
Ntp3843
Rp3844
(dp3845
g7
g37
sg9
g10
sg11
S'16'
p3846
sb(I10
I35
I0
tp3847
sg1
(g2
g3
Ntp3848
Rp3849
(dp3850
g7
g85
sg9
g25
sg11
S'20'
p3851
sb(I350
I891
I0
tp3852
sg1
(g2
g3
Ntp3853
Rp3854
(dp3855
g7
g85
sg9
g30
sg11
S'17'
p3856
sb(I1229
I1658
I0
tp3857
sg1
(g2
g3
Ntp3858
Rp3859
(dp3860
g7
S'26'
p3861
sg9
g10
sg11
S'16'
p3862
sb(I917
I0
I0
tp3863
sg1
(g2
g3
Ntp3864
Rp3865
(dp3866
g7
g85
sg9
g30
sg11
S'20'
p3867
sb(I917
I2414
I0
tp3868
sg1
(g2
g3
Ntp3869
Rp3870
(dp3871
g7
g37
sg9
g18
sg11
S'16'
p3872
sb(I25
I73
I0
tp3873
sg1
(g2
g3
Ntp3874
Rp3875
(dp3876
g7
g85
sg9
g25
sg11
S'17'
p3877
sb(I337
I417
I0
tp3878
sg1
(g2
g3
Ntp3879
Rp3880
(dp3881
g7
g17
sg9
g10
sg11
g37
sb(I2
I5
I0
tp3882
sg1
(g2
g3
Ntp3883
Rp3884
(dp3885
g7
g37
sg9
g30
sg11
S'16'
p3886
sb(I1295
I1412
I0
tp3887
sg1
(g2
g3
Ntp3888
Rp3889
(dp3890
g7
g85
sg9
g18
sg11
S'20'
p3891
sb(I516
I1476
I0
tp3892
sg1
(g2
g3
Ntp3893
Rp3894
(dp3895
g7
g85
sg9
g10
sg11
S'17'
p3896
sb(I25
I24
I0
tp3897
sg1
(g2
g3
Ntp3898
Rp3899
(dp3900
g7
g17
sg9
g10
sg11
S'11'
p3901
sb(I7
I9
I0
tp3902
sg1
(g2
g3
Ntp3903
Rp3904
(dp3905
g7
g85
sg9
g10
sg11
S'20'
p3906
sb(I89
I31
I0
tp3907
sg1
(g2
g3
Ntp3908
Rp3909
(dp3910
g7
g58
sg9
g25
sg11
g85
sb(I62
I0
I0
tp3911
sg1
(g2
g3
Ntp3912
Rp3913
(dp3914
g7
S'22'
p3915
sg9
g10
sg11
S'14'
p3916
sb(I1645
I0
I0
tp3917
sg1
(g2
g3
Ntp3918
Rp3919
(dp3920
g7
S'22'
p3921
sg9
g10
sg11
S'19'
p3922
sb(I1853
I0
I0
tp3923
sg1
(g2
g3
Ntp3924
Rp3925
(dp3926
g7
g37
sg9
g25
sg11
S'16'
p3927
sb(I405
I398
I0
tp3928
sg1
(g2
g3
Ntp3929
Rp3930
(dp3931
g7
S'22'
p3932
sg9
g10
sg11
g112
sb(I76
I0
I0
tp3933
sg1
(g2
g3
Ntp3934
Rp3935
(dp3936
g7
g12
sg9
g30
sg11
g112
sb(I74
I0
I0
tp3937
sg1
(g2
g3
Ntp3938
Rp3939
(dp3940
g7
g85
sg9
g10
sg11
g12
sb(I0
I3
I0
tp3941
sg1
(g2
g3
Ntp3942
Rp3943
(dp3944
g7
g12
sg9
g30
sg11
g58
sb(I624
I0
I0
tp3945
sg1
(g2
g3
Ntp3946
Rp3947
(dp3948
g7
g37
sg9
g25
sg11
S'15'
p3949
sb(I487
I388
I0
tp3950
sg1
(g2
g3
Ntp3951
Rp3952
(dp3953
g7
g64
sg9
g30
sg11
S'21'
p3954
sb(I1289
I1848
I0
tp3955
sg1
(g2
g3
Ntp3956
Rp3957
(dp3958
g7
g12
sg9
g25
sg11
g58
sb(I291
I0
I0
tp3959
sg1
(g2
g3
Ntp3960
Rp3961
(dp3962
g7
g37
sg9
g30
sg11
S'15'
p3963
sb(I1462
I1324
I0
tp3964
sg1
(g2
g3
Ntp3965
Rp3966
(dp3967
g7
g64
sg9
g25
sg11
S'21'
p3968
sb(I524
I0
I0
tp3969
sg1
(g2
g3
Ntp3970
Rp3971
(dp3972
g7
S'18'
p3973
sg9
g10
sg11
S'15'
p3974
sb(I3
I3187
I0
tp3975
sg1
(g2
g3
Ntp3976
Rp3977
(dp3978
g7
g17
sg9
g25
sg11
S'18'
p3979
sb(I277
I450
I0
tp3980
sg1
(g2
g3
Ntp3981
Rp3982
(dp3983
g7
g58
sg9
g18
sg11
g58
sb(I24
I102
I0
tp3984
sg1
(g2
g3
Ntp3985
Rp3986
(dp3987
g7
g85
sg9
g30
sg11
g12
sb(I232
I0
I0
tp3988
sg1
(g2
g3
Ntp3989
Rp3990
(dp3991
g7
S'10'
p3992
sg9
g10
sg11
g17
sb(I1
I2
I0
tp3993
sg1
(g2
g3
Ntp3994
Rp3995
(dp3996
g7
g85
sg9
g25
sg11
g17
sb(I2
I0
I0
tp3997
sg1
(g2
g3
Ntp3998
Rp3999
(dp4000
g7
g58
sg9
g30
sg11
g58
sb(I646
I0
I0
tp4001
sg1
(g2
g3
Ntp4002
Rp4003
(dp4004
g7
g17
sg9
g25
sg11
S'15'
p4005
sb(I509
I367
I0
tp4006
sg1
(g2
g3
Ntp4007
Rp4008
(dp4009
g7
S'25'
p4010
sg9
g10
sg11
S'10'
p4011
sb(I353
I0
I0
tp4012
sg1
(g2
g3
Ntp4013
Rp4014
(dp4015
g7
g58
sg9
g25
sg11
g58
sb(I306
I0
I0
tp4016
sg1
(g2
g3
Ntp4017
Rp4018
(dp4019
g7
S'23'
p4020
sg9
g10
sg11
S'25'
p4021
sb(I1
I1927
I0
tp4022
sg1
(g2
g3
Ntp4023
Rp4024
(dp4025
g7
g85
sg9
g25
sg11
g12
sb(I148
I0
I0
tp4026
sg1
(g2
g3
Ntp4027
Rp4028
(dp4029
g7
g12
sg9
g18
sg11
g58
sb(I28
I84
I0
tp4030
sg1
(g2
g3
Ntp4031
Rp4032
(dp4033
g7
S'24'
p4034
sg9
g10
sg11
g12
sb(I112
I0
I0
tp4035
sg1
(g2
g3
Ntp4036
Rp4037
(dp4038
g7
g85
sg9
g10
sg11
S'28'
p4039
sb(I0
I81
I0
tp4040
sg1
(g2
g3
Ntp4041
Rp4042
(dp4043
g7
S'17'
p4044
sg9
g10
sg11
S'13'
p4045
sb(I3
I3115
I0
tp4046
sg1
(g2
g3
Ntp4047
Rp4048
(dp4049
g7
g17
sg9
g18
sg11
g112
sb(I32
I76
I0
tp4050
sg1
(g2
g3
Ntp4051
Rp4052
(dp4053
g7
g70
sg9
g10
sg11
S'30'
p4054
sb(I0
I78
I0
tp4055
sg1
(g2
g3
Ntp4056
Rp4057
(dp4058
g7
g64
sg9
g10
sg11
S'14'
p4059
sb(I20
I31
I0
tp4060
sg1
(g2
g3
Ntp4061
Rp4062
(dp4063
g7
S'10'
p4064
sg9
g10
sg11
g64
sb(I8
I34
I0
tp4065
sg1
(g2
g3
Ntp4066
Rp4067
(dp4068
g7
g17
sg9
g10
sg11
g12
sb(I2
I3
I0
tp4069
sg1
(g2
g3
Ntp4070
Rp4071
(dp4072
g7
S'10'
p4073
sg9
g25
sg11
g64
sb(I1490
I0
I0
tp4074
sg1
(g2
g3
Ntp4075
Rp4076
(dp4077
g7
g17
sg9
g10
sg11
S'24'
p4078
sb(I0
I106
I0
tp4079
sg1
(g2
g3
Ntp4080
Rp4081
(dp4082
g7
S'18'
p4083
sg9
g10
sg11
S'12'
p4084
sb(I1
I2465
I0
tp4085
sg1
(g2
g3
Ntp4086
Rp4087
(dp4088
g7
g17
sg9
g25
sg11
g12
sb(I138
I0
I0
tp4089
sg1
(g2
g3
Ntp4090
Rp4091
(dp4092
g7
S'23'
p4093
sg9
g10
sg11
S'28'
p4094
sb(I0
I1316
I0
tp4095
sg1
(g2
g3
Ntp4096
Rp4097
(dp4098
g7
g70
sg9
g10
sg11
S'23'
p4099
sb(I0
I110
I0
tp4100
sg1
(g2
g3
Ntp4101
Rp4102
(dp4103
g7
g64
sg9
g10
sg11
S'17'
p4104
sb(I11
I34
I0
tp4105
sg1
(g2
g3
Ntp4106
Rp4107
(dp4108
g7
S'10'
p4109
sg9
g30
sg11
g64
sb(I3419
I0
I0
tp4110
sg1
(g2
g3
Ntp4111
Rp4112
(dp4113
g7
S'25'
p4114
sg9
g10
sg11
g112
sb(I50
I0
I0
tp4115
sg1
(g2
g3
Ntp4116
Rp4117
(dp4118
g7
S'17'
p4119
sg9
g10
sg11
S'18'
p4120
sb(I3625
I0
I0
tp4121
sg1
(g2
g3
Ntp4122
Rp4123
(dp4124
g7
g70
sg9
g25
sg11
S'20'
p4125
sb(I336
I902
I0
tp4126
sg1
(g2
g3
Ntp4127
Rp4128
(dp4129
g7
g17
sg9
g25
sg11
S'16'
p4130
sb(I437
I400
I0
tp4131
sg1
(g2
g3
Ntp4132
Rp4133
(dp4134
g7
g12
sg9
g25
sg11
g112
sb(I49
I0
I0
tp4135
sg1
(g2
g3
Ntp4136
Rp4137
(dp4138
g7
S'17'
p4139
sg9
g10
sg11
g70
sb(I0
I420
I0
tp4140
sg1
(g2
g3
Ntp4141
Rp4142
(dp4143
g7
g70
sg9
g30
sg11
S'20'
p4144
sb(I959
I2320
I0
tp4145
sg1
(g2
g3
Ntp4146
Rp4147
(dp4148
g7
g112
sg9
g10
sg11
S'10'
p4149
sb(I6
I7
I0
tp4150
sg1
(g2
g3
Ntp4151
Rp4152
(dp4153
g7
g17
sg9
g30
sg11
S'16'
p4154
sb(I1328
I1415
I0
tp4155
sg1
(g2
g3
Ntp4156
Rp4157
(dp4158
g7
S'21'
p4159
sg9
g10
sg11
g37
sb(I0
I497
I0
tp4160
sg1
(g2
g3
Ntp4161
Rp4162
(dp4163
g7
g12
sg9
g10
sg11
S'13'
p4164
sb(I13
I27
I0
tp4165
sg1
(g2
g3
Ntp4166
Rp4167
(dp4168
g7
g17
sg9
g18
sg11
S'16'
p4169
sb(I30
I82
I0
tp4170
sg1
(g2
g3
Ntp4171
Rp4172
(dp4173
g7
g70
sg9
g18
sg11
S'20'
p4174
sb(I554
I1374
I0
tp4175
sg1
(g2
g3
Ntp4176
Rp4177
(dp4178
g7
g70
sg9
g30
sg11
g17
sb(I6
I0
I0
tp4179
sg1
(g2
g3
Ntp4180
Rp4181
(dp4182
g7
S'17'
p4183
sg9
g10
sg11
S'22'
p4184
sb(I1
I5896
I0
tp4185
sg1
(g2
g3
Ntp4186
Rp4187
(dp4188
g7
S'11'
p4189
sg9
g18
sg11
g70
sb(I8
I112
I0
tp4190
sg1
(g2
g3
Ntp4191
Rp4192
(dp4193
g7
g70
sg9
g10
sg11
S'20'
p4194
sb(I99
I27
I0
tp4195
sg1
(g2
g3
Ntp4196
Rp4197
(dp4198
g7
g64
sg9
g25
sg11
S'15'
p4199
sb(I472
I381
I0
tp4200
sg1
(g2
g3
Ntp4201
Rp4202
(dp4203
g7
S'26'
p4204
sg9
g10
sg11
S'19'
p4205
sb(I974
I0
I0
tp4206
sg1
(g2
g3
Ntp4207
Rp4208
(dp4209
g7
g70
sg9
g25
sg11
g58
sb(I295
I0
I0
tp4210
sg1
(g2
g3
Ntp4211
Rp4212
(dp4213
g7
S'11'
p4214
sg9
g18
sg11
S'16'
p4215
sb(I24
I104
I0
tp4216
sg1
(g2
g3
Ntp4217
Rp4218
(dp4219
g7
S'10'
p4220
sg9
g10
sg11
S'15'
p4221
sb(I50
I168
I0
tp4222
sg1
(g2
g3
Ntp4223
Rp4224
(dp4225
g7
g112
sg9
g10
sg11
S'30'
p4226
sb(I0
I102
I0
tp4227
sg1
(g2
g3
Ntp4228
Rp4229
(dp4230
g7
g112
sg9
g18
sg11
S'10'
p4231
sb(I52
I104
I0
tp4232
sg1
(g2
g3
Ntp4233
Rp4234
(dp4235
g7
S'18'
p4236
sg9
g10
sg11
S'27'
p4237
sb(I0
I3386
I0
tp4238
sg1
(g2
g3
Ntp4239
Rp4240
(dp4241
g7
S'26'
p4242
sg9
g10
sg11
S'18'
p4243
sb(I983
I0
I0
tp4244
sg1
(g2
g3
Ntp4245
Rp4246
(dp4247
g7
S'22'
p4248
sg9
g10
sg11
S'11'
p4249
sb(I644
I0
I0
tp4250
sg1
(g2
g3
Ntp4251
Rp4252
(dp4253
g7
g112
sg9
g10
sg11
S'23'
p4254
sb(I0
I106
I0
tp4255
sg1
(g2
g3
Ntp4256
Rp4257
(dp4258
g7
g85
sg9
g10
sg11
S'26'
p4259
sb(I0
I91
I0
tp4260
sg1
(g2
g3
Ntp4261
Rp4262
(dp4263
g7
g70
sg9
g25
sg11
S'15'
p4264
sb(I450
I433
I0
tp4265
sg1
(g2
g3
Ntp4266
Rp4267
(dp4268
g7
g64
sg9
g10
sg11
S'24'
p4269
sb(I0
I114
I0
tp4270
sg1
(g2
g3
Ntp4271
Rp4272
(dp4273
g7
g12
sg9
g30
sg11
S'11'
p4274
sb(I1169
I0
I0
tp4275
sg1
(g2
g3
Ntp4276
Rp4277
(dp4278
g7
g112
sg9
g18
sg11
S'14'
p4279
sb(I33
I61
I0
tp4280
sg1
(g2
g3
Ntp4281
Rp4282
(dp4283
g7
g64
sg9
g25
sg11
S'13'
p4284
sb(I678
I323
I0
tp4285
sg1
(g2
g3
Ntp4286
Rp4287
(dp4288
g7
g64
sg9
g30
sg11
S'13'
p4289
sb(I1878
I835
I0
tp4290
sg1
(g2
g3
Ntp4291
Rp4292
(dp4293
g7
g64
sg9
g10
sg11
S'25'
p4294
sb(I0
I99
I0
tp4295
sg1
(g2
g3
Ntp4296
Rp4297
(dp4298
g7
g70
sg9
g30
sg11
S'15'
p4299
sb(I1501
I1298
I0
tp4300
sg1
(g2
g3
Ntp4301
Rp4302
(dp4303
g7
g64
sg9
g10
sg11
S'28'
p4304
sb(I0
I55
I0
tp4305
sg1
(g2
g3
Ntp4306
Rp4307
(dp4308
g7
g37
sg9
g10
sg11
S'17'
p4309
sb(I20
I39
I0
tp4310
sg1
(g2
g3
Ntp4311
Rp4312
(dp4313
g7
g12
sg9
g25
sg11
S'11'
p4314
sb(I482
I0
I0
tp4315
sg1
(g2
g3
Ntp4316
Rp4317
(dp4318
g7
g58
sg9
g25
sg11
g12
sb(I136
I0
I0
tp4319
sg1
(g2
g3
Ntp4320
Rp4321
(dp4322
g7
g12
sg9
g10
sg11
S'11'
p4323
sb(I6
I11
I0
tp4324
sg1
(g2
g3
Ntp4325
Rp4326
(dp4327
g7
g37
sg9
g25
sg11
S'17'
p4328
sb(I391
I372
I0
tp4329
sg1
(g2
g3
Ntp4330
Rp4331
(dp4332
g7
S'10'
p4333
sg9
g25
sg11
S'13'
p4334
sb(I2739
I1274
I0
tp4335
sg1
(g2
g3
Ntp4336
Rp4337
(dp4338
g7
S'19'
p4339
sg9
g10
sg11
g85
sb(I0
I102
I0
tp4340
sg1
(g2
g3
Ntp4341
Rp4342
(dp4343
g7
S'10'
p4344
sg9
g30
sg11
S'13'
p4345
sb(I7399
I3480
I0
tp4346
sg1
(g2
g3
Ntp4347
Rp4348
(dp4349
g7
S'25'
p4350
sg9
g10
sg11
S'31'
p4351
sb(I0
I380
I0
tp4352
sg1
(g2
g3
Ntp4353
Rp4354
(dp4355
g7
g58
sg9
g30
sg11
g12
sb(I307
I0
I0
tp4356
sg1
(g2
g3
Ntp4357
Rp4358
(dp4359
g7
S'20'
p4360
sg9
g10
sg11
S'21'
p4361
sb(I4948
I0
I0
tp4362
sg1
(g2
g3
Ntp4363
Rp4364
(dp4365
g7
S'26'
p4366
sg9
g10
sg11
S'17'
p4367
sb(I1011
I0
I0
tp4368
sg1
(g2
g3
Ntp4369
Rp4370
(dp4371
g7
g37
sg9
g30
sg11
S'17'
p4372
sb(I1156
I1646
I0
tp4373
sg1
(g2
g3
Ntp4374
Rp4375
(dp4376
g7
g112
sg9
g10
sg11
S'25'
p4377
sb(I0
I110
I0
tp4378
sg1
(g2
g3
Ntp4379
Rp4380
(dp4381
g7
S'25'
p4382
sg9
g10
sg11
S'26'
p4383
sb(I0
I1329
I0
tp4384
sg1
(g2
g3
Ntp4385
Rp4386
(dp4387
g7
g12
sg9
g30
sg11
S'21'
p4388
sb(I1375
I1808
I0
tp4389
sg1
(g2
g3
Ntp4390
Rp4391
(dp4392
g7
S'10'
p4393
sg9
g10
sg11
S'20'
p4394
sb(I231
I198
I0
tp4395
sg1
(g2
g3
Ntp4396
Rp4397
(dp4398
g7
g17
sg9
g30
sg11
S'15'
p4399
sb(I1459
I1304
I0
tp4400
sg1
(g2
g3
Ntp4401
Rp4402
(dp4403
g7
g70
sg9
g25
sg11
S'17'
p4404
sb(I342
I443
I0
tp4405
sg1
(g2
g3
Ntp4406
Rp4407
(dp4408
g7
S'10'
p4409
sg9
g18
sg11
S'20'
p4410
sb(I1451
I5885
I0
tp4411
sg1
(g2
g3
Ntp4412
Rp4413
(dp4414
g7
g70
sg9
g30
sg11
S'17'
p4415
sb(I1193
I1696
I0
tp4416
sg1
(g2
g3
Ntp4417
Rp4418
(dp4419
g7
g112
sg9
g10
sg11
S'28'
p4420
sb(I0
I61
I0
tp4421
sg1
(g2
g3
Ntp4422
Rp4423
(dp4424
g7
g12
sg9
g25
sg11
S'21'
p4425
sb(I530
I0
I0
tp4426
sg1
(g2
g3
Ntp4427
Rp4428
(dp4429
g7
g64
sg9
g30
sg11
S'11'
p4430
sb(I1187
I0
I0
tp4431
sg1
(g2
g3
Ntp4432
Rp4433
(dp4434
g7
S'22'
p4435
sg9
g10
sg11
S'30'
p4436
sb(I0
I1181
I0
tp4437
sg1
(g2
g3
Ntp4438
Rp4439
(dp4440
g7
S'10'
p4441
sg9
g30
sg11
S'20'
p4442
sb(I3585
I9298
I0
tp4443
sg1
(g2
g3
Ntp4444
Rp4445
(dp4446
g7
g12
sg9
g10
sg11
S'21'
p4447
sb(I79
I7
I0
tp4448
sg1
(g2
g3
Ntp4449
Rp4450
(dp4451
g7
g17
sg9
g10
sg11
S'15'
p4452
sb(I19
I24
I0
tp4453
sg1
(g2
g3
Ntp4454
Rp4455
(dp4456
g7
S'26'
p4457
sg9
g10
sg11
S'11'
p4458
sb(I351
I0
I0
tp4459
sg1
(g2
g3
Ntp4460
Rp4461
(dp4462
g7
g64
sg9
g10
sg11
S'22'
p4463
sb(I0
I113
I0
tp4464
sg1
(g2
g3
Ntp4465
Rp4466
(dp4467
g7
g70
sg9
g10
sg11
S'17'
p4468
sb(I28
I35
I0
tp4469
sg1
(g2
g3
Ntp4470
Rp4471
(dp4472
g7
S'23'
p4473
sg9
g10
sg11
S'27'
p4474
sb(I1
I1567
I0
tp4475
sg1
(g2
g3
Ntp4476
Rp4477
(dp4478
g7
S'10'
p4479
sg9
g25
sg11
S'20'
p4480
sb(I1268
I3393
I0
tp4481
sg1
(g2
g3
Ntp4482
Rp4483
(dp4484
g7
S'22'
p4485
sg9
g10
sg11
S'16'
p4486
sb(I1694
I0
I0
tp4487
sg1
(g2
g3
Ntp4488
Rp4489
(dp4490
g7
S'10'
p4491
sg9
g18
sg11
g85
sb(I91
I377
I0
tp4492
sg1
(g2
g3
Ntp4493
Rp4494
(dp4495
g7
S'21'
p4496
sg9
g10
sg11
S'26'
p4497
sb(I0
I3248
I0
tp4498
sg1
(g2
g3
Ntp4499
Rp4500
(dp4501
g7
g85
sg9
g10
sg11
S'21'
p4502
sb(I59
I6
I0
tp4503
sg1
(g2
g3
Ntp4504
Rp4505
(dp4506
g7
S'23'
p4507
sg9
g10
sg11
S'19'
p4508
sb(I1659
I0
I0
tp4509
sg1
(g2
g3
Ntp4510
Rp4511
(dp4512
g7
S'23'
p4513
sg9
g10
sg11
g12
sb(I115
I0
I0
tp4514
sg1
(g2
g3
Ntp4515
Rp4516
(dp4517
g7
S'22'
p4518
sg9
g10
sg11
S'27'
p4519
sb(I3
I1818
I0
tp4520
sg1
(g2
g3
Ntp4521
Rp4522
(dp4523
g7
g58
sg9
g30
sg11
g17
sb(I3
I0
I0
tp4524
sg1
(g2
g3
Ntp4525
Rp4526
(dp4527
g7
g64
sg9
g25
sg11
g112
sb(I70
I0
I0
tp4528
sg1
(g2
g3
Ntp4529
Rp4530
(dp4531
g7
S'21'
p4532
sg9
g10
sg11
S'10'
p4533
sb(I0
I898
I0
tp4534
sg1
(g2
g3
Ntp4535
Rp4536
(dp4537
g7
S'26'
p4538
sg9
g10
sg11
S'30'
p4539
sb(I2
I644
I0
tp4540
sg1
(g2
g3
Ntp4541
Rp4542
(dp4543
g7
g58
sg9
g10
sg11
g70
sb(I1
I3
I0
tp4544
sg1
(g2
g3
Ntp4545
Rp4546
(dp4547
g7
S'10'
p4548
sg9
g30
sg11
g85
sb(I224
I0
I0
tp4549
sg1
(g2
g3
Ntp4550
Rp4551
(dp4552
g7
S'22'
p4553
sg9
g10
sg11
g70
sb(I216
I0
I0
tp4554
sg1
(g2
g3
Ntp4555
Rp4556
(dp4557
g7
S'20'
p4558
sg9
g10
sg11
g12
sb(I0
I367
I0
tp4559
sg1
(g2
g3
Ntp4560
Rp4561
(dp4562
g7
S'23'
p4563
sg9
g10
sg11
S'17'
p4564
sb(I1558
I0
I0
tp4565
sg1
(g2
g3
Ntp4566
Rp4567
(dp4568
g7
S'20'
p4569
sg9
g10
sg11
S'29'
p4570
sb(I0
I3221
I0
tp4571
sg1
(g2
g3
Ntp4572
Rp4573
(dp4574
g7
g58
sg9
g10
sg11
S'20'
p4575
sb(I83
I17
I0
tp4576
sg1
(g2
g3
Ntp4577
Rp4578
(dp4579
g7
g58
sg9
g10
sg11
S'30'
p4580
sb(I0
I71
I0
tp4581
sg1
(g2
g3
Ntp4582
Rp4583
(dp4584
g7
S'10'
p4585
sg9
g10
sg11
S'14'
p4586
sb(I59
I153
I0
tp4587
sg1
(g2
g3
Ntp4588
Rp4589
(dp4590
g7
g58
sg9
g18
sg11
S'20'
p4591
sb(I444
I1360
I0
tp4592
sg1
(g2
g3
Ntp4593
Rp4594
(dp4595
g7
S'17'
p4596
sg9
g10
sg11
S'12'
p4597
sb(I0
I2731
I0
tp4598
sg1
(g2
g3
Ntp4599
Rp4600
(dp4601
g7
g58
sg9
g30
sg11
S'20'
p4602
sb(I895
I2269
I0
tp4603
sg1
(g2
g3
Ntp4604
Rp4605
(dp4606
g7
g17
sg9
g10
sg11
S'18'
p4607
sb(I40
I27
I0
tp4608
sg1
(g2
g3
Ntp4609
Rp4610
(dp4611
g7
g58
sg9
g25
sg11
S'20'
p4612
sb(I353
I891
I0
tp4613
sg1
(g2
g3
Ntp4614
Rp4615
(dp4616
g7
g64
sg9
g30
sg11
g70
sb(I350
I0
I0
tp4617
sg1
(g2
g3
Ntp4618
Rp4619
(dp4620
g7
S'24'
p4621
sg9
g10
sg11
S'24'
p4622
sb(I0
I1907
I0
tp4623
sg1
(g2
g3
Ntp4624
Rp4625
(dp4626
g7
g58
sg9
g25
sg11
S'13'
p4627
sb(I631
I324
I0
tp4628
sg1
(g2
g3
Ntp4629
Rp4630
(dp4631
g7
g64
sg9
g30
sg11
g12
sb(I297
I0
I0
tp4632
sg1
(g2
g3
Ntp4633
Rp4634
(dp4635
g7
S'26'
p4636
sg9
g10
sg11
g112
sb(I44
I0
I0
tp4637
sg1
(g2
g3
Ntp4638
Rp4639
(dp4640
g7
S'23'
p4641
sg9
g10
sg11
S'26'
p4642
sb(I0
I1666
I0
tp4643
sg1
(g2
g3
Ntp4644
Rp4645
(dp4646
g7
g64
sg9
g25
sg11
S'20'
p4647
sb(I310
I942
I0
tp4648
sg1
(g2
g3
Ntp4649
Rp4650
(dp4651
g7
g112
sg9
g18
sg11
S'20'
p4652
sb(I547
I1399
I0
tp4653
sg1
(g2
g3
Ntp4654
Rp4655
(dp4656
g7
S'24'
p4657
sg9
g10
sg11
S'28'
p4658
sb(I0
I1186
I0
tp4659
sg1
(g2
g3
Ntp4660
Rp4661
(dp4662
g7
g64
sg9
g30
sg11
S'20'
p4663
sb(I947
I2405
I0
tp4664
sg1
(g2
g3
Ntp4665
Rp4666
(dp4667
g7
S'11'
p4668
sg9
g30
sg11
S'10'
p4669
sb(I917
I0
I0
tp4670
sg1
(g2
g3
Ntp4671
Rp4672
(dp4673
g7
g64
sg9
g25
sg11
g12
sb(I116
I0
I0
tp4674
sg1
(g2
g3
Ntp4675
Rp4676
(dp4677
g7
g64
sg9
g18
sg11
S'20'
p4678
sb(I427
I1459
I0
tp4679
sg1
(g2
g3
Ntp4680
Rp4681
(dp4682
g7
g37
sg9
g10
sg11
g17
sbg1342
sg1
(g2
g3
Ntp4683
Rp4684
(dp4685
g7
g112
sg9
g30
sg11
S'20'
p4686
sb(I908
I2374
I0
tp4687
sg1
(g2
g3
Ntp4688
Rp4689
(dp4690
g7
g64
sg9
g10
sg11
S'10'
p4691
sb(I2
I10
I0
tp4692
sg1
(g2
g3
Ntp4693
Rp4694
(dp4695
g7
S'21'
p4696
sg9
g10
sg11
S'25'
p4697
sb(I0
I3765
I0
tp4698
sg1
(g2
g3
Ntp4699
Rp4700
(dp4701
g7
S'11'
p4702
sg9
g18
sg11
S'10'
p4703
sb(I22
I96
I0
tp4704
sg1
(g2
g3
Ntp4705
Rp4706
(dp4707
g7
g112
sg9
g30
sg11
g12
sb(I270
I0
I0
tp4708
sg1
(g2
g3
Ntp4709
Rp4710
(dp4711
g7
S'20'
p4712
sg9
g10
sg11
g70
sb(I0
I501
I0
tp4713
sg1
(g2
g3
Ntp4714
Rp4715
(dp4716
g7
g64
sg9
g10
sg11
S'20'
p4717
sb(I98
I23
I0
tp4718
sg1
(g2
g3
Ntp4719
Rp4720
(dp4721
g7
g58
sg9
g10
sg11
S'13'
p4722
sb(I12
I32
I0
tp4723
sg1
(g2
g3
Ntp4724
Rp4725
(dp4726
g7
g112
sg9
g25
sg11
S'20'
p4727
sb(I307
I879
I0
tp4728
sg1
(g2
g3
Ntp4729
Rp4730
(dp4731
g7
S'10'
p4732
sg9
g25
sg11
g85
sb(I222
I0
I0
tp4733
sg1
(g2
g3
Ntp4734
Rp4735
(dp4736
g7
S'18'
p4737
sg9
g10
sg11
S'13'
p4738
sb(I0
I2904
I0
tp4739
sg1
(g2
g3
Ntp4740
Rp4741
(dp4742
g7
S'11'
p4743
sg9
g25
sg11
S'20'
p4744
sb(I327
I922
I0
tp4745
sg1
(g2
g3
Ntp4746
Rp4747
(dp4748
g7
g85
sg9
g25
sg11
S'15'
p4749
sb(I499
I360
I0
tp4750
sg1
(g2
g3
Ntp4751
Rp4752
(dp4753
g7
g85
sg9
g30
sg11
S'15'
p4754
sb(I1492
I1290
I0
tp4755
sg1
(g2
g3
Ntp4756
Rp4757
(dp4758
g7
S'20'
p4759
sg9
g10
sg11
S'18'
p4760
sb(I2
I4530
I0
tp4761
sg1
(g2
g3
Ntp4762
Rp4763
(dp4764
g7
g17
sg9
g10
sg11
S'17'
p4765
sb(I22
I36
I0
tp4766
sg1
(g2
g3
Ntp4767
Rp4768
(dp4769
g7
S'23'
p4770
sg9
g10
sg11
S'31'
p4771
sb(I0
I468
I0
tp4772
sg1
(g2
g3
Ntp4773
Rp4774
(dp4775
g7
S'23'
p4776
sg9
g10
sg11
S'15'
p4777
sb(I1570
I0
I0
tp4778
sg1
(g2
g3
Ntp4779
Rp4780
(dp4781
g7
S'11'
p4782
sg9
g30
sg11
S'20'
p4783
sb(I942
I2309
I0
tp4784
sg1
(g2
g3
Ntp4785
Rp4786
(dp4787
g7
g12
sg9
g10
sg11
S'20'
p4788
sb(I76
I22
I0
tp4789
sg1
(g2
g3
Ntp4790
Rp4791
(dp4792
g7
S'11'
p4793
sg9
g18
sg11
S'20'
p4794
sb(I279
I1687
I0
tp4795
sg1
(g2
g3
Ntp4796
Rp4797
(dp4798
g7
g17
sg9
g25
sg11
S'17'
p4799
sb(I342
I433
I0
tp4800
sg1
(g2
g3
Ntp4801
Rp4802
(dp4803
g7
g85
sg9
g10
sg11
S'15'
p4804
sb(I13
I40
I0
tp4805
sg1
(g2
g3
Ntp4806
Rp4807
(dp4808
g7
g17
sg9
g30
sg11
S'17'
p4809
sb(I1202
I1596
I0
tp4810
sg1
(g2
g3
Ntp4811
Rp4812
(dp4813
g7
g58
sg9
g10
sg11
S'23'
p4814
sb(I0
I100
I0
tp4815
sg1
(g2
g3
Ntp4816
Rp4817
(dp4818
g7
S'11'
p4819
sg9
g10
sg11
S'20'
p4820
sb(I55
I63
I0
tp4821
sg1
(g2
g3
Ntp4822
Rp4823
(dp4824
g7
g58
sg9
g10
sg11
S'28'
p4825
sb(I0
I48
I0
tp4826
sg1
(g2
g3
Ntp4827
Rp4828
(dp4829
g7
S'24'
p4830
sg9
g10
sg11
S'29'
p4831
sb(I0
I997
I0
tp4832
sg1
(g2
g3
Ntp4833
Rp4834
(dp4835
g7
g12
sg9
g10
sg11
g70
sb(I1
I2
I0
tp4836
sg1
(g2
g3
Ntp4837
Rp4838
(dp4839
g7
g64
sg9
g10
sg11
g12
sb(I0
I3
I0
tp4840
sg1
(g2
g3
Ntp4841
Rp4842
(dp4843
g7
S'11'
p4844
sg9
g18
sg11
g85
sb(I11
I79
I0
tp4845
sg1
(g2
g3
Ntp4846
Rp4847
(dp4848
g7
S'18'
p4849
sg9
g10
sg11
S'20'
p4850
sb(I4618
I0
I0
tp4851
sg1
(g2
g3
Ntp4852
Rp4853
(dp4854
g7
g12
sg9
g30
sg11
S'13'
p4855
sb(I1861
I900
I0
tp4856
sg1
(g2
g3
Ntp4857
Rp4858
(dp4859
g7
g85
sg9
g10
sg11
g64
sb(I3
I4
I0
tp4860
sg1
(g2
g3
Ntp4861
Rp4862
(dp4863
g7
g85
sg9
g10
sg11
S'24'
p4864
sb(I0
I116
I0
tp4865
sg1
(g2
g3
Ntp4866
Rp4867
(dp4868
g7
S'11'
p4869
sg9
g25
sg11
g85
sb(I50
I0
I0
tp4870
sg1
(g2
g3
Ntp4871
Rp4872
(dp4873
g7
g17
sg9
g10
sg11
g70
sb(I1
I2
I0
tp4874
sg1
(g2
g3
Ntp4875
Rp4876
(dp4877
g7
S'19'
p4878
sg9
g10
sg11
S'10'
p4879
sb(I0
I1009
I0
tp4880
sg1
(g2
g3
Ntp4881
Rp4882
(dp4883
g7
S'25'
p4884
sg9
g10
sg11
S'25'
p4885
sb(I0
I1478
I0
tp4886
sg1
(g2
g3
Ntp4887
Rp4888
(dp4889
g7
S'24'
p4890
sg9
g10
sg11
S'21'
p4891
sb(I1558
I0
I0
tp4892
sg1
(g2
g3
Ntp4893
Rp4894
(dp4895
g7
S'22'
p4896
sg9
g10
sg11
S'17'
p4897
sb(I1872
I0
I0
tp4898
sg1
(g2
g3
Ntp4899
Rp4900
(dp4901
g7
g70
sg9
g25
sg11
S'14'
p4902
sb(I606
I345
I0
tp4903
sg1
(g2
g3
Ntp4904
Rp4905
(dp4906
g7
S'11'
p4907
sg9
g30
sg11
g85
sb(I51
I0
I0
tp4908
sg1
(g2
g3
Ntp4909
Rp4910
(dp4911
g7
g58
sg9
g10
sg11
S'14'
p4912
sb(I9
I36
I0
tp4913
sg1
(g2
g3
Ntp4914
Rp4915
(dp4916
g7
g64
sg9
g25
sg11
g64
sb(I354
I0
I0
tp4917
sg1
(g2
g3
Ntp4918
Rp4919
(dp4920
g7
g85
sg9
g25
sg11
S'13'
p4921
sb(I646
I312
I0
tp4922
sg1
(g2
g3
Ntp4923
Rp4924
(dp4925
g7
g85
sg9
g18
sg11
g85
sb(I26
I88
I0
tp4926
sg1
(g2
g3
Ntp4927
Rp4928
(dp4929
g7
g85
sg9
g25
sg11
g112
sb(I54
I0
I0
tp4930
sg1
(g2
g3
Ntp4931
Rp4932
(dp4933
g7
g64
sg9
g30
sg11
g64
sb(I841
I0
I0
tp4934
sg1
(g2
g3
Ntp4935
Rp4936
(dp4937
g7
g85
sg9
g25
sg11
g85
sb(I60
I0
I0
tp4938
sg1
(g2
g3
Ntp4939
Rp4940
(dp4941
g7
g85
sg9
g10
sg11
S'30'
p4942
sb(I0
I70
I0
tp4943
sg1
(g2
g3
Ntp4944
Rp4945
(dp4946
g7
g12
sg9
g30
sg11
S'12'
p4947
sb(I1662
I675
I0
tp4948
sg1
(g2
g3
Ntp4949
Rp4950
(dp4951
g7
g37
sg9
g10
sg11
S'12'
p4952
sb(I10
I34
I0
tp4953
sg1
(g2
g3
Ntp4954
Rp4955
(dp4956
g7
g64
sg9
g10
sg11
g64
sb(I2
I10
I0
tp4957
sg1
(g2
g3
Ntp4958
Rp4959
(dp4960
g7
g85
sg9
g30
sg11
S'13'
p4961
sb(I1846
I916
I0
tp4962
sg1
(g2
g3
Ntp4963
Rp4964
(dp4965
g7
g12
sg9
g10
sg11
g64
sb(I6
I5
I0
tp4966
sg1
(g2
g3
Ntp4967
Rp4968
(dp4969
g7
g70
sg9
g25
sg11
g37
sb(I263
I0
I0
tp4970
sg1
(g2
g3
Ntp4971
Rp4972
(dp4973
g7
S'24'
p4974
sg9
g10
sg11
S'25'
p4975
sb(I0
I1799
I0
tp4976
sg1
(g2
g3
Ntp4977
Rp4978
(dp4979
g7
g12
sg9
g30
sg11
S'20'
p4980
sb(I965
I2262
I0
tp4981
sg1
(g2
g3
Ntp4982
Rp4983
(dp4984
g7
g17
sg9
g30
sg11
S'11'
p4985
sb(I1173
I0
I0
tp4986
sg1
(g2
g3
Ntp4987
Rp4988
(dp4989
g7
g12
sg9
g25
sg11
S'20'
p4990
sb(I307
I921
I0
tp4991
sg1
(g2
g3
Ntp4992
Rp4993
(dp4994
g7
g17
sg9
g10
sg11
S'10'
p4995
sb(I5
I5
I0
tp4996
sg1
(g2
g3
Ntp4997
Rp4998
(dp4999
g7
g12
sg9
g30
sg11
g64
sb(I798
I0
I0
tp5000
sg1
(g2
g3
Ntp5001
Rp5002
(dp5003
g7
g70
sg9
g25
sg11
g85
sb(I56
I0
I0
tp5004
sg1
(g2
g3
Ntp5005
Rp5006
(dp5007
g7
g12
sg9
g10
sg11
S'27'
p5008
sb(I0
I72
I0
tp5009
sg1
(g2
g3
Ntp5010
Rp5011
(dp5012
g7
S'26'
p5013
sg9
g10
sg11
S'21'
p5014
sb(I1141
I0
I0
tp5015
sg1
(g2
g3
Ntp5016
Rp5017
(dp5018
g7
S'24'
p5019
sg9
g10
sg11
S'17'
p5020
sb(I1403
I0
I0
tp5021
sg1
(g2
g3
Ntp5022
Rp5023
(dp5024
g7
S'20'
p5025
sg9
g10
sg11
S'22'
p5026
sb(I0
I7396
I0
tp5027
sg1
(g2
g3
Ntp5028
Rp5029
(dp5030
g7
g12
sg9
g18
sg11
S'20'
p5031
sb(I549
I1425
I0
tp5032
sg1
(g2
g3
Ntp5033
Rp5034
(dp5035
g7
g12
sg9
g25
sg11
g64
sb(I400
I0
I0
tp5036
sg1
(g2
g3
Ntp5037
Rp5038
(dp5039
g7
S'21'
p5040
sg9
g10
sg11
S'16'
p5041
sb(I0
I2906
I0
tp5042
sg1
(g2
g3
Ntp5043
Rp5044
(dp5045
g7
g58
sg9
g10
sg11
g64
sb(I2
I7
I0
tp5046
sg1
(g2
g3
Ntp5047
Rp5048
(dp5049
g7
g112
sg9
g10
sg11
S'13'
p5050
sb(I21
I27
I0
tp5051
sg1
(g2
g3
Ntp5052
Rp5053
(dp5054
g7
g70
sg9
g10
sg11
S'13'
p5055
sb(I16
I21
I0
tp5056
sg1
(g2
g3
Ntp5057
Rp5058
(dp5059
g7
S'20'
p5060
sg9
g10
sg11
g112
sb(I0
I194
I0
tp5061
sg1
(g2
g3
Ntp5062
Rp5063
(dp5064
g7
S'24'
p5065
sg9
g10
sg11
S'18'
p5066
sb(I1431
I0
I0
tp5067
sg1
(g2
g3
Ntp5068
Rp5069
(dp5070
g7
S'20'
p5071
sg9
g10
sg11
S'30'
p5072
sb(I0
I2904
I0
tp5073
sg1
(g2
g3
Ntp5074
Rp5075
(dp5076
g7
g112
sg9
g30
sg11
S'13'
p5077
sb(I1813
I919
I0
tp5078
sg1
(g2
g3
Ntp5079
Rp5080
(dp5081
g7
S'19'
p5082
sg9
g10
sg11
S'14'
p5083
sb(I1
I2989
I0
tp5084
sg1
(g2
g3
Ntp5085
Rp5086
(dp5087
g7
S'21'
p5088
sg9
g10
sg11
S'28'
p5089
sb(I0
I2594
I0
tp5090
sg1
(g2
g3
Ntp5091
Rp5092
(dp5093
g7
S'25'
p5094
sg9
g10
sg11
S'15'
p5095
sb(I1101
I0
I0
tp5096
sg1
(g2
g3
Ntp5097
Rp5098
(dp5099
g7
S'20'
p5100
sg9
g10
sg11
S'24'
p5101
sb(I0
I6125
I0
tp5102
sg1
(g2
g3
Ntp5103
Rp5104
(dp5105
g7
g112
sg9
g25
sg11
S'13'
p5106
sb(I704
I338
I0
tp5107
sg1
(g2
g3
Ntp5108
Rp5109
(dp5110
g7
S'19'
p5111
sg9
g10
sg11
S'20'
p5112
sb(I4427
I0
I0
tp5113
sg1
(g2
g3
Ntp5114
Rp5115
(dp5116
g7
g58
sg9
g10
sg11
S'15'
p5117
sb(I11
I33
I0
tp5118
sg1
(g2
g3
Ntp5119
Rp5120
(dp5121
g7
g85
sg9
g10
sg11
S'22'
p5122
sb(I0
I133
I0
tp5123
sg1
(g2
g3
Ntp5124
Rp5125
(dp5126
g7
S'26'
p5127
sg9
g10
sg11
g85
sb(I21
I0
I0
tp5128
sg1
(g2
g3
Ntp5129
Rp5130
(dp5131
g7
S'17'
p5132
sg9
g10
sg11
g58
sb(I0
I752
I0
tp5133
sg1
(g2
g3
Ntp5134
Rp5135
(dp5136
g7
S'24'
p5137
sg9
g10
sg11
S'16'
p5138
sb(I1381
I0
I0
tp5139
sg1
(g2
g3
Ntp5140
Rp5141
(dp5142
g7
S'10'
p5143
sg9
g10
sg11
g37
sb(I3
I26
I0
tp5144
sg1
(g2
g3
Ntp5145
Rp5146
(dp5147
g7
g85
sg9
g10
sg11
S'14'
p5148
sb(I12
I42
I0
tp5149
sg1
(g2
g3
Ntp5150
Rp5151
(dp5152
g7
g17
sg9
g25
sg11
g37
sb(I262
I0
I0
tp5153
sg1
(g2
g3
Ntp5154
Rp5155
(dp5156
g7
g17
sg9
g30
sg11
g37
sb(I575
I0
I0
tp5157
sg1
(g2
g3
Ntp5158
Rp5159
(dp5160
g7
g70
sg9
g10
sg11
S'27'
p5161
sb(I0
I83
I0
tp5162
sg1
(g2
g3
Ntp5163
Rp5164
(dp5165
g7
g85
sg9
g18
sg11
S'14'
p5166
sb(I23
I87
I0
tp5167
sg1
(g2
g3
Ntp5168
Rp5169
(dp5170
g7
g37
sg9
g30
sg11
g37
sb(I494
I0
I0
tp5171
sg1
(g2
g3
Ntp5172
Rp5173
(dp5174
g7
g37
sg9
g10
sg11
S'23'
p5175
sb(I0
I123
I0
tp5176
sg1
(g2
g3
Ntp5177
Rp5178
(dp5179
g7
S'17'
p5180
sg9
g10
sg11
S'20'
p5181
sb(I4851
I0
I0
tp5182
sg1
(g2
g3
Ntp5183
Rp5184
(dp5185
g7
g85
sg9
g30
sg11
S'14'
p5186
sb(I1645
I1001
I0
tp5187
sg1
(g2
g3
Ntp5188
Rp5189
(dp5190
g7
g17
sg9
g10
sg11
S'16'
p5191
sb(I23
I35
I0
tp5192
sg1
(g2
g3
Ntp5193
Rp5194
(dp5195
g7
S'26'
p5196
sg9
g10
sg11
S'24'
p5197
sb(I2
I1426
I0
tp5198
sg1
(g2
g3
Ntp5199
Rp5200
(dp5201
g7
g85
sg9
g25
sg11
S'14'
p5202
sb(I563
I361
I0
tp5203
sg1
(g2
g3
Ntp5204
Rp5205
(dp5206
g7
g37
sg9
g10
sg11
S'27'
p5207
sb(I0
I77
I0
tp5208
sg1
(g2
g3
Ntp5209
Rp5210
(dp5211
g7
S'26'
p5212
sg9
g10
sg11
S'29'
p5213
sb(I1
I686
I0
tp5214
sg1
(g2
g3
Ntp5215
Rp5216
(dp5217
g7
g85
sg9
g25
sg11
S'11'
p5218
sb(I519
I0
I0
tp5219
sg1
(g2
g3
Ntp5220
Rp5221
(dp5222
g7
S'10'
p5223
sg9
g30
sg11
g37
sb(I2087
I0
I0
tp5224
sg1
(g2
g3
Ntp5225
Rp5226
(dp5227
g7
S'26'
p5228
sg9
g10
sg11
S'28'
p5229
sb(I0
I821
I0
tp5230
sg1
(g2
g3
Ntp5231
Rp5232
(dp5233
g7
S'11'
p5234
sg9
g10
sg11
S'26'
p5235
sb(I0
I88
I0
tp5236
sg1
(g2
g3
Ntp5237
Rp5238
(dp5239
g7
g58
sg9
g30
sg11
g112
sb(I73
I0
I0
tp5240
sg1
(g2
g3
Ntp5241
Rp5242
(dp5243
g7
g85
sg9
g30
sg11
S'11'
p5244
sb(I1244
I0
I0
tp5245
sg1
(g2
g3
Ntp5246
Rp5247
(dp5248
g7
g112
sg9
g30
sg11
S'15'
p5249
sb(I1498
I1350
I0
tp5250
sg1
(g2
g3
Ntp5251
Rp5252
(dp5253
g7
S'10'
p5254
sg9
g25
sg11
g37
sb(I1021
I0
I0
tp5255
sg1
(g2
g3
Ntp5256
Rp5257
(dp5258
g7
S'24'
p5259
sg9
g10
sg11
g70
sb(I164
I0
I0
tp5260
sg1
(g2
g3
Ntp5261
Rp5262
(dp5263
g7
g64
sg9
g18
sg11
S'18'
p5264
sb(I30
I76
I0
tp5265
sg1
(g2
g3
Ntp5266
Rp5267
(dp5268
g7
S'11'
p5269
sg9
g10
sg11
g64
sb(I3
I9
I0
tp5270
sg1
(g2
g3
Ntp5271
Rp5272
(dp5273
g7
S'11'
p5274
sg9
g18
sg11
S'14'
p5275
sb(I9
I133
I0
tp5276
sg1
(g2
g3
Ntp5277
Rp5278
(dp5279
g7
g64
sg9
g30
sg11
S'17'
p5280
sb(I1219
I1693
I0
tp5281
sg1
(g2
g3
Ntp5282
Rp5283
(dp5284
g7
S'17'
p5285
sg9
g10
sg11
S'10'
p5286
sb(I0
I1077
I0
tp5287
sg1
(g2
g3
Ntp5288
Rp5289
(dp5290
g7
g64
sg9
g25
sg11
S'17'
p5291
sb(I327
I427
I0
tp5292
sg1
(g2
g3
Ntp5293
Rp5294
(dp5295
g7
g85
sg9
g10
sg11
S'11'
p5296
sb(I6
I10
I0
tp5297
sg1
(g2
g3
Ntp5298
Rp5299
(dp5300
g7
g58
sg9
g25
sg11
g37
sb(I260
I0
I0
tp5301
sg1
(g2
g3
Ntp5302
Rp5303
(dp5304
g7
g12
sg9
g30
sg11
S'17'
p5305
sb(I1164
I1645
I0
tp5306
sg1
(g2
g3
Ntp5307
Rp5308
(dp5309
g7
S'22'
p5310
sg9
g10
sg11
S'29'
p5311
sb(I0
I1338
I0
tp5312
sg1
(g2
g3
Ntp5313
Rp5314
(dp5315
g7
g37
sg9
g30
sg11
S'11'
p5316
sb(I1154
I0
I0
tp5317
sg1
(g2
g3
Ntp5318
Rp5319
(dp5320
g7
S'24'
p5321
sg9
g10
sg11
g112
sb(I67
I0
I0
tp5322
sg1
(g2
g3
Ntp5323
Rp5324
(dp5325
g7
g37
sg9
g25
sg11
S'11'
p5326
sb(I514
I0
I0
tp5327
sg1
(g2
g3
Ntp5328
Rp5329
(dp5330
g7
S'21'
p5331
sg9
g10
sg11
S'30'
p5332
sb(I0
I2054
I0
tp5333
sg1
(g2
g3
Ntp5334
Rp5335
(dp5336
g7
g85
sg9
g30
sg11
g112
sb(I91
I0
I0
tp5337
sg1
(g2
g3
Ntp5338
Rp5339
(dp5340
g7
g12
sg9
g25
sg11
S'17'
p5341
sb(I340
I408
I0
tp5342
sg1
(g2
g3
Ntp5343
Rp5344
(dp5345
g7
g12
sg9
g18
sg11
g70
sb(I29
I75
I0
tp5346
sg1
(g2
g3
Ntp5347
Rp5348
(dp5349
g7
g12
sg9
g10
sg11
S'17'
p5350
sb(I23
I31
I0
tp5351
sg1
(g2
g3
Ntp5352
Rp5353
(dp5354
g7
S'20'
p5355
sg9
g10
sg11
S'13'
p5356
sb(I0
I3735
I0
tp5357
sg1
(g2
g3
Ntp5358
Rp5359
(dp5360
g7
S'20'
p5361
sg9
g10
sg11
S'16'
p5362
sb(I0
I4244
I0
tp5363
sg1
(g2
g3
Ntp5364
Rp5365
(dp5366
g7
g37
sg9
g10
sg11
S'11'
p5367
sb(I3
I10
I0
tp5368
sg1
(g2
g3
Ntp5369
Rp5370
(dp5371
g7
S'17'
p5372
sg9
g10
sg11
S'27'
p5373
sb(I0
I3572
I0
tp5374
sg1
(g2
g3
Ntp5375
Rp5376
(dp5377
g7
g58
sg9
g30
sg11
S'15'
p5378
sb(I1569
I1348
I0
tp5379
sg1
(g2
g3
Ntp5380
Rp5381
(dp5382
g7
S'11'
p5383
sg9
g10
sg11
S'14'
p5384
sb(I7
I34
I0
tp5385
sg1
(g2
g3
Ntp5386
Rp5387
(dp5388
g7
g12
sg9
g10
sg11
S'31'
p5389
sb(I0
I21
I0
tp5390
sg1
(g2
g3
Ntp5391
Rp5392
(dp5393
g7
g58
sg9
g25
sg11
S'15'
p5394
sb(I509
I388
I0
tp5395
sg1
(g2
g3
Ntp5396
Rp5397
(dp5398
g7
S'22'
p5399
sg9
g10
sg11
S'21'
p5400
sb(I2123
I0
I0
tp5401
sg1
(g2
g3
Ntp5402
Rp5403
(dp5404
g7
S'24'
p5405
sg9
g10
sg11
S'31'
p5406
sb(I0
I426
I0
tp5407
sg1
(g2
g3
Ntp5408
Rp5409
(dp5410
g7
S'26'
p5411
sg9
g10
sg11
S'26'
p5412
sb(I3
I1063
I0
tp5413
sg1
(g2
g3
Ntp5414
Rp5415
(dp5416
g7
g112
sg9
g30
sg11
g85
sb(I57
I0
I0
tp5417
sg1
(g2
g3
Ntp5418
Rp5419
(dp5420
g7
g37
sg9
g25
sg11
g37
sb(I263
I0
I0
tp5421
sg1
(g2
g3
Ntp5422
Rp5423
(dp5424
g7
g70
sg9
g18
sg11
S'14'
p5425
sb(I27
I77
I0
tp5426
sg1
(g2
g3
Ntp5427
Rp5428
(dp5429
g7
g112
sg9
g10
sg11
S'15'
p5430
sb(I21
I41
I0
tp5431
sg1
(g2
g3
Ntp5432
Rp5433
(dp5434
g7
S'11'
p5435
sg9
g25
sg11
S'14'
p5436
sb(I628
I385
I0
tp5437
sg1
(g2
g3
Ntp5438
Rp5439
(dp5440
g7
S'11'
p5441
sg9
g18
sg11
S'12'
p5442
sb(I15
I93
I0
tp5443
sg1
(g2
g3
Ntp5444
Rp5445
(dp5446
g7
S'11'
p5447
sg9
g30
sg11
S'14'
p5448
sb(I1595
I1126
I0
tp5449
sg1
(g2
g3
Ntp5450
Rp5451
(dp5452
g7
S'21'
p5453
sg9
g10
sg11
S'15'
p5454
sb(I0
I2685
I0
tp5455
sg1
(g2
g3
Ntp5456
Rp5457
(dp5458
g7
S'18'
p5459
sg9
g10
sg11
S'17'
p5460
sb(I0
I3467
I0
tp5461
sg1
(g2
g3
Ntp5462
Rp5463
(dp5464
g7
S'11'
p5465
sg9
g10
sg11
S'12'
p5466
sb(I8
I34
I0
tp5467
sg1
(g2
g3
Ntp5468
Rp5469
(dp5470
g7
S'26'
p5471
sg9
g10
sg11
g70
sb(I91
I0
I0
tp5472
sg1
(g2
g3
Ntp5473
Rp5474
(dp5475
g7
S'11'
p5476
sg9
g25
sg11
S'12'
p5477
sb(I713
I265
I0
tp5478
sg1
(g2
g3
Ntp5479
Rp5480
(dp5481
g7
S'24'
p5482
sg9
g10
sg11
S'30'
p5483
sb(I0
I926
I0
tp5484
sg1
(g2
g3
Ntp5485
Rp5486
(dp5487
g7
S'20'
p5488
sg9
g10
sg11
S'17'
p5489
sb(I0
I4317
I0
tp5490
sg1
(g2
g3
Ntp5491
Rp5492
(dp5493
g7
S'11'
p5494
sg9
g30
sg11
S'12'
p5495
sb(I1740
I703
I0
tp5496
sg1
(g2
g3
Ntp5497
Rp5498
(dp5499
g7
g112
sg9
g10
sg11
g12
sb(I4
I1
I0
tp5500
sg1
(g2
g3
Ntp5501
Rp5502
(dp5503
g7
g70
sg9
g30
sg11
S'14'
p5504
sb(I1624
I1026
I0
tp5505
sg1
(g2
g3
Ntp5506
Rp5507
(dp5508
g7
S'25'
p5509
sg9
g10
sg11
S'16'
p5510
sb(I1116
I0
I0
tp5511
sg1
(g2
g3
Ntp5512
Rp5513
(dp5514
g7
S'11'
p5515
sg9
g25
sg11
S'10'
p5516
sb(I445
I0
I0
tp5517
sg1
(g2
g3
Ntp5518
Rp5519
(dp5520
g7
g37
sg9
g10
sg11
g37
sb(I2
I6
I0
tp5521
sg1
(g2
g3
Ntp5522
Rp5523
(dp5524
g7
g112
sg9
g25
sg11
S'15'
p5525
sb(I494
I392
I0
tp5526
sg1
(g2
g3
Ntp5527
Rp5528
(dp5529
g7
S'11'
p5530
sg9
g25
sg11
g64
sb(I396
I0
I0
tp5531
s.